(dp1
S'generation'
p2
I15
sS'rndstate'
p3
(I3
(L3364468207L
L2109789419L
L3375859153L
L4026904319L
L181419095L
L4154851123L
L3469460376L
L4095127995L
L3074255441L
L1951815921L
L1506378659L
L944123553L
L2683462908L
L2262797317L
L757530965L
L1237818246L
L2274805561L
L374225326L
L1812054947L
L3715830871L
L2504663747L
L2371707692L
L3306627665L
L4198530575L
L3402700189L
L1228526504L
L3035094858L
L1726365298L
L1200357315L
L338602833L
L738696782L
L1668020966L
L1434585879L
L2475769791L
L1239566769L
L2403919086L
L3569564350L
L2851738374L
L1481564625L
L3781454629L
L915324213L
L1566969810L
L547737976L
L2969398752L
L3785045391L
L271895591L
L3854774406L
L2237805829L
L2830630335L
L516835400L
L1104553480L
L1212421085L
L3503422587L
L2648661602L
L2565083556L
L2666135489L
L2184397963L
L1028332970L
L1470116351L
L2365758851L
L499695272L
L2693476433L
L2741336585L
L1368562492L
L1143616812L
L1638750716L
L2418823670L
L3032562463L
L3356677845L
L1351801620L
L67591960L
L3459407111L
L2928904388L
L401515073L
L3605987471L
L1579911943L
L3765692121L
L2084041696L
L3591658540L
L1896751448L
L1653526579L
L1620393882L
L1707472404L
L592438546L
L1264821349L
L4018601207L
L2071109824L
L1255194904L
L3105803130L
L479597643L
L2140815758L
L4219582908L
L679700151L
L1031546313L
L1166759011L
L68164799L
L1361966323L
L1855424829L
L2436647611L
L4011857914L
L845860871L
L1242066451L
L1787569530L
L1760306540L
L2865293890L
L1464864088L
L2927492249L
L3034633146L
L21902578L
L1245047076L
L1132922533L
L2179439128L
L2545859679L
L63376423L
L840253210L
L479061144L
L1833704203L
L1082524732L
L588538879L
L2343899159L
L3297276694L
L3824587199L
L3746310523L
L3508468032L
L2471796615L
L2173563210L
L3928475646L
L2365826900L
L3589670104L
L571134104L
L679933876L
L2941053278L
L1221213310L
L130914078L
L1879987269L
L3524992208L
L1808847885L
L1133218673L
L2906132088L
L452513997L
L924424826L
L1068919495L
L4000935903L
L1820592363L
L3819398950L
L3908703393L
L2477468306L
L351450558L
L3055066115L
L2517507726L
L413976937L
L3069491249L
L1281594315L
L650631679L
L1767539882L
L2219066663L
L538530840L
L2349559248L
L2246368561L
L2896199965L
L1500118169L
L3721760320L
L4043313535L
L458649546L
L2427377471L
L945515275L
L195739077L
L1155019140L
L2331694892L
L2353421349L
L4230149124L
L4122937172L
L760260412L
L2628603852L
L2298936607L
L225750775L
L2247635477L
L3716070903L
L3595077271L
L1167255415L
L3047704810L
L2580765155L
L424749819L
L399647900L
L1607420431L
L127677779L
L1230701353L
L2780043220L
L1452481002L
L4235057538L
L526333404L
L4096812873L
L3380275001L
L783071959L
L2152087954L
L2713189582L
L545229545L
L1439989199L
L774157517L
L3273591792L
L3476333469L
L1914176102L
L1151247765L
L669949869L
L2149280403L
L3537149329L
L479034828L
L2206132626L
L2930554326L
L4169357521L
L2864031143L
L4154665317L
L3153296876L
L2246908089L
L1958165034L
L1800892534L
L3247469052L
L3594516767L
L1734053081L
L4277966285L
L2876441020L
L1684147813L
L4151790092L
L3333160613L
L2484345097L
L932748785L
L1036318042L
L435460824L
L1709660139L
L239646533L
L3840493042L
L2341450045L
L2795998590L
L2789204147L
L3130173066L
L2587250791L
L3207841038L
L3614984920L
L1043515834L
L3208631257L
L3988491313L
L3948031508L
L4273378112L
L2254234964L
L3605671208L
L4240567028L
L3071360370L
L3288042657L
L3013972877L
L803221562L
L1201398633L
L2757213015L
L3127439873L
L3472970714L
L1590599471L
L2418808156L
L1566086322L
L1308191333L
L2386046083L
L799047912L
L2236856659L
L880119380L
L224450707L
L2046485231L
L1203607504L
L2041442588L
L1895110309L
L658000540L
L1092752691L
L3166653482L
L2029669136L
L2472314002L
L1034520503L
L3233613550L
L504082207L
L2852034456L
L3538668650L
L2368269172L
L2103928341L
L3182696824L
L862302291L
L3745341102L
L2314231200L
L2854710065L
L1293850401L
L3773547394L
L4136608835L
L1720636565L
L2871204427L
L2127540141L
L2474775700L
L2824735931L
L2508964766L
L2708868190L
L1762970518L
L3801947559L
L2472236179L
L2291617860L
L175257026L
L3242108133L
L2805508116L
L3129123655L
L1131005784L
L3946215019L
L1611006301L
L3757828820L
L2261028265L
L1394475257L
L2670907151L
L1047661085L
L3182139917L
L2465560301L
L1865362086L
L131044970L
L4215068279L
L2893479646L
L1358354798L
L3243542747L
L2001902356L
L1419016378L
L764060572L
L4165624441L
L2854967819L
L3449757080L
L4034883553L
L4083008266L
L2804760290L
L1588243517L
L1105426654L
L1461536174L
L2947258780L
L1157149256L
L2771162875L
L3765916529L
L1000062383L
L1953081584L
L819297311L
L1955121136L
L2490341621L
L2367726407L
L96522093L
L1671413182L
L367583605L
L2593514850L
L886247162L
L178626269L
L1144148617L
L1865743197L
L3950083786L
L1848532598L
L874672482L
L991069751L
L2147258852L
L3250753732L
L1748272798L
L3477068009L
L2649639307L
L2294679661L
L4159203172L
L675889009L
L2749265869L
L2327888866L
L2224624388L
L3471206961L
L2024442441L
L3062310035L
L579062018L
L3645078601L
L3838509973L
L2307441282L
L549304892L
L3047586532L
L761738777L
L1972924586L
L4177330462L
L636881808L
L3676783937L
L583588143L
L4079155358L
L186423559L
L634931596L
L1454059067L
L3288400877L
L4217716523L
L591908161L
L92272377L
L1591123847L
L3148785143L
L2288805836L
L605158043L
L3380435608L
L655094731L
L2209233579L
L3430289320L
L570302520L
L1130167439L
L1522801001L
L2593561264L
L2502974045L
L3722212726L
L1361078667L
L854500209L
L842697129L
L1973027665L
L1097295698L
L3255140342L
L58611463L
L1731712211L
L2458834148L
L906800801L
L3559065630L
L3051536488L
L2288942963L
L3630390796L
L282291196L
L3892477480L
L988868201L
L1852535806L
L1662249330L
L3355037434L
L3346673438L
L780210064L
L1660449302L
L1563062604L
L3260132304L
L2084103730L
L213223534L
L539846655L
L3528812502L
L1648425327L
L3631023551L
L2437099950L
L2657219234L
L1331711214L
L244738929L
L2773946470L
L627378574L
L293369145L
L2181900985L
L1002757822L
L2646321519L
L1083944766L
L3497981803L
L3582584623L
L3314676626L
L1022841029L
L3680065660L
L3412983163L
L3841315444L
L1056843368L
L1227133025L
L3179784067L
L1195435483L
L1025590975L
L120090443L
L3102606076L
L609203413L
L3788789367L
L3544187338L
L3246763227L
L1073346106L
L1261981817L
L1272067806L
L2314337733L
L2665274516L
L2765905634L
L3808361730L
L2331103959L
L2531045401L
L3764593276L
L961769677L
L3939240510L
L1362015985L
L1681253788L
L890978533L
L3243460615L
L1592249141L
L2160560553L
L4015737500L
L2150673808L
L3697466352L
L3064796986L
L3905298774L
L3197230681L
L3469788529L
L464489377L
L1717371799L
L2138425107L
L854707697L
L419576366L
L1620453645L
L144281614L
L992469959L
L3706369548L
L3481931663L
L2727073159L
L715152475L
L1410451309L
L924090339L
L991426322L
L2000241966L
L1595830615L
L2619698778L
L2057020865L
L1955887346L
L3797058414L
L163249236L
L3668431783L
L2328888784L
L3206173062L
L1479415868L
L3032347731L
L4016107179L
L769632970L
L3455567708L
L3553240824L
L1096264369L
L3041658527L
L1453303498L
L761697234L
L267533871L
L863888856L
L4244455658L
L2806804274L
L352771060L
L2078719405L
L2818066654L
L2569136909L
L3139153384L
L393507489L
L2427233652L
L2810048852L
L2436581209L
L369748731L
L96379394L
L3695781420L
L3139174145L
L1850286208L
L2208776001L
L4259249604L
L2147219492L
L1030458107L
L910468062L
L123802304L
L4155843937L
L1615814919L
L2558857642L
L376606865L
L2816165320L
L2953183317L
L377646187L
L2407266927L
L3403521874L
L2262291898L
L3914376765L
L1525589750L
L3387163160L
L2137264704L
L4102891852L
L1158130409L
L446695910L
L666768057L
L2659454675L
L3195439992L
L3610399112L
L3514834572L
L149102331L
L96440722L
L3896288513L
L3457972264L
L1801863743L
L859063439L
L1232107955L
L2024437589L
L3763866511L
L1631046770L
L549734188L
L2318974507L
L115083076L
L1065606065L
L521568291L
L1197009219L
L2876210271L
L2088572284L
L4182161479L
L870209L
L1701495635L
L340384072L
L2931183991L
L1867095826L
L6394574L
L3069765646L
L2131120185L
L1002613029L
L1372557128L
L3479388927L
L2203710265L
L1352513793L
L1422691887L
L465262336L
L1625799021L
L1860654546L
L794735538L
L331198553L
L2150574803L
L860197431L
L3214554716L
L2702662905L
L3413687012L
L2390718522L
L1109140991L
L3314860976L
L1488582775L
L45843673L
L840609256L
L1401613461L
L2771810785L
L3361026277L
L3133021253L
L1159591308L
L2265414017L
L4001798815L
L3854899912L
L3884479297L
L286L
tNtp4
sS'population'
p5
(lp6
ccopy_reg
_reconstructor
p7
(cdeap.creator
Tactic
p8
c__builtin__
list
p9
(lp10
(i__main__
Gene
p11
(dp12
S'value'
p13
F-22298.293574174342
sba(i__main__
Gene
p14
(dp15
g13
F32994.663062580854
sba(i__main__
Gene
p16
(dp17
g13
F-26209.572253980514
sba(i__main__
Gene
p18
(dp19
g13
F6796.4993605574555
sba(i__main__
Gene
p20
(dp21
g13
F-8173.7058477197425
sba(i__main__
Gene
p22
(dp23
g13
F44752.546783051715
sba(i__main__
Gene
p24
(dp25
g13
F-693.49148917404034
sba(i__main__
Gene
p26
(dp27
g13
F28.62033684816334
sba(i__main__
Gene
p28
(dp29
g13
F-448.9602880762078
sba(i__main__
Gene
p30
(dp31
g13
F337.7601972476424
sba(i__main__
Gene
p32
(dp33
g13
F-947.47337143836592
sba(i__main__
Gene
p34
(dp35
g13
F328.42579244755677
sba(i__main__
Gene
p36
(dp37
g13
F-57.223278379287088
sba(i__main__
Gene
p38
(dp39
g13
F69.079240229298989
sba(i__main__
Gene
p40
(dp41
g13
F-48.159071117024233
sba(i__main__
Gene
p42
(dp43
g13
F39.834527561865798
sba(i__main__
Gene
p44
(dp45
g13
F-10.955464673177957
sba(i__main__
Gene
p46
(dp47
g13
F11.226151159213305
sba(i__main__
Gene
p48
(dp49
g13
F-36608.739254173837
sba(i__main__
Gene
p50
(dp51
g13
F55.165070324463365
sba(i__main__
Gene
p52
(dp53
g13
F-45960.558376435343
sba(i__main__
Gene
p54
(dp55
g13
F5627.5823076278148
sba(i__main__
Gene
p56
(dp57
g13
F-42320.560762759953
sba(i__main__
Gene
p58
(dp59
g13
F2424.4984825850852
sba(i__main__
Gene
p60
(dp61
g13
F-363.58667342633578
sba(i__main__
Gene
p62
(dp63
g13
F888.26921929166224
sba(i__main__
Gene
p64
(dp65
g13
F-479.61371118982743
sba(i__main__
Gene
p66
(dp67
g13
F636.3719566494226
sba(i__main__
Gene
p68
(dp69
g13
F-843.46507943395443
sba(i__main__
Gene
p70
(dp71
g13
F435.97116619917119
sba(i__main__
Gene
p72
(dp73
g13
F-64.366192192898765
sba(i__main__
Gene
p74
(dp75
g13
F29.33947968991718
sba(i__main__
Gene
p76
(dp77
g13
F-82.060198440815398
sba(i__main__
Gene
p78
(dp79
g13
F95.765795746838052
sba(i__main__
Gene
p80
(dp81
g13
F-15.760288172020083
sba(i__main__
Gene
p82
(dp83
g13
F27.189642611174982
sba(i__main__
Gene
p84
(dp85
g13
F-11643.330347935924
sba(i__main__
Gene
p86
(dp87
g13
F9039.6484453018584
sba(i__main__
Gene
p88
(dp89
g13
F-32312.200751839326
sba(i__main__
Gene
p90
(dp91
g13
F7676.0706806937833
sba(i__main__
Gene
p92
(dp93
g13
F-38705.600812038203
sba(i__main__
Gene
p94
(dp95
g13
F8935.953855804657
sba(i__main__
Gene
p96
(dp97
g13
F-349.6130567517514
sba(i__main__
Gene
p98
(dp99
g13
F346.04566636468479
sba(i__main__
Gene
p100
(dp101
g13
F-130.40412028316234
sba(i__main__
Gene
p102
(dp103
g13
F285.9744846048967
sba(i__main__
Gene
p104
(dp105
g13
F-86.369987080277383
sba(i__main__
Gene
p106
(dp107
g13
F902.41413094408449
sba(i__main__
Gene
p108
(dp109
g13
F-9.6193987123956504
sba(i__main__
Gene
p110
(dp111
g13
F95.196042661310855
sba(i__main__
Gene
p112
(dp113
g13
F-79.410522271968418
sba(i__main__
Gene
p114
(dp115
g13
F45.531699837463115
sba(i__main__
Gene
p116
(dp117
g13
F-27.624997252994064
sba(i__main__
Gene
p118
(dp119
g13
F77.968996708309732
sba(i__main__
Gene
p120
(dp121
g13
F-34613.018721442844
sba(i__main__
Gene
p122
(dp123
g13
F35178.622102995621
sba(i__main__
Gene
p124
(dp125
g13
F-25952.638149079216
sba(i__main__
Gene
p126
(dp127
g13
F13478.694824208633
sba(i__main__
Gene
p128
(dp129
g13
F-22206.326072317897
sba(i__main__
Gene
p130
(dp131
g13
F22956.277119441562
sba(i__main__
Gene
p132
(dp133
g13
F-84.916327286164346
sba(i__main__
Gene
p134
(dp135
g13
F104.47061469524299
sba(i__main__
Gene
p136
(dp137
g13
F-675.42637750639983
sba(i__main__
Gene
p138
(dp139
g13
F366.80550531808518
sba(i__main__
Gene
p140
(dp141
g13
F-239.73725867470921
sba(i__main__
Gene
p142
(dp143
g13
F280.83793406253596
sba(i__main__
Gene
p144
(dp145
g13
F-34.255206267445416
sba(i__main__
Gene
p146
(dp147
g13
F42.518841186249077
sba(i__main__
Gene
p148
(dp149
g13
F-42.642723717966277
sba(i__main__
Gene
p150
(dp151
g13
F53.504600496677057
sba(i__main__
Gene
p152
(dp153
g13
F-18.289221775827144
sba(i__main__
Gene
p154
(dp155
g13
F89.112223544703681
sba(i__main__
Gene
p156
(dp157
g13
F-5395.9311967976537
sba(i__main__
Gene
p158
(dp159
g13
F45343.727669003827
sba(i__main__
Gene
p160
(dp161
g13
F-32176.112496827634
sba(i__main__
Gene
p162
(dp163
g13
F37515.145233905168
sba(i__main__
Gene
p164
(dp165
g13
F-9916.4557943974942
sba(i__main__
Gene
p166
(dp167
g13
F1139.683753331544
sba(i__main__
Gene
p168
(dp169
g13
F-826.96433096708324
sba(i__main__
Gene
p170
(dp171
g13
F187.50765966635373
sba(i__main__
Gene
p172
(dp173
g13
F-80.725763208946887
sba(i__main__
Gene
p174
(dp175
g13
F365.96242376281174
sba(i__main__
Gene
p176
(dp177
g13
F-726.34590568072758
sba(i__main__
Gene
p178
(dp179
g13
F68.569383151586564
sba(i__main__
Gene
p180
(dp181
g13
F-12.382980467915033
sba(i__main__
Gene
p182
(dp183
g13
F80.416858994156158
sba(i__main__
Gene
p184
(dp185
g13
F-6.0721146563468977
sba(i__main__
Gene
p186
(dp187
g13
F83.213020141168826
sba(i__main__
Gene
p188
(dp189
g13
F-85.656092211242679
sba(i__main__
Gene
p190
(dp191
g13
F91.537598606768427
sba(i__main__
Gene
p192
(dp193
g13
F-4845.8671909624391
sba(i__main__
Gene
p194
(dp195
g13
F37977.55138588656
sba(i__main__
Gene
p196
(dp197
g13
F-34891.65029332113
sba(i__main__
Gene
p198
(dp199
g13
F43632.476872586951
sba(i__main__
Gene
p200
(dp201
g13
F-15396.550608146168
sba(i__main__
Gene
p202
(dp203
g13
F23839.001036392779
sba(i__main__
Gene
p204
(dp205
g13
F-632.29731835378107
sba(i__main__
Gene
p206
(dp207
g13
F907.18008456609277
sba(i__main__
Gene
p208
(dp209
g13
F-960.98469030643662
sba(i__main__
Gene
p210
(dp211
g13
F490.52546261661269
sba(i__main__
Gene
p212
(dp213
g13
F-319.3261306428185
sba(i__main__
Gene
p214
(dp215
g13
F876.83733306344925
sba(i__main__
Gene
p216
(dp217
g13
F-79.95004157339531
sba(i__main__
Gene
p218
(dp219
g13
F18.643865528351643
sba(i__main__
Gene
p220
(dp221
g13
F-12.896595513965224
sba(i__main__
Gene
p222
(dp223
g13
F59.526000462667248
sba(i__main__
Gene
p224
(dp225
g13
F-90.306826311517284
sba(i__main__
Gene
p226
(dp227
g13
F59.390849525637066
sba(i__main__
Gene
p228
(dp229
g13
F-1486.6417545837394
sba(i__main__
Gene
p230
(dp231
g13
F31951.516190848917
sba(i__main__
Gene
p232
(dp233
g13
F-43980.941447644924
sba(i__main__
Gene
p234
(dp235
g13
F24734.911938267203
sba(i__main__
Gene
p236
(dp237
g13
F-39772.675861745898
sba(i__main__
Gene
p238
(dp239
g13
F31938.608714203587
sba(i__main__
Gene
p240
(dp241
g13
F-748.02295789969867
sba(i__main__
Gene
p242
(dp243
g13
F928.58553293410819
sba(i__main__
Gene
p244
(dp245
g13
F-391.6550298506121
sba(i__main__
Gene
p246
(dp247
g13
F142.77081141363746
sba(i__main__
Gene
p248
(dp249
g13
F-395.53276157395453
sba(i__main__
Gene
p250
(dp251
g13
F472.58240105219818
sba(i__main__
Gene
p252
(dp253
g13
F-12.762805593979465
sba(i__main__
Gene
p254
(dp255
g13
F76.595871137974086
sba(i__main__
Gene
p256
(dp257
g13
F-89.338500657066135
sba(i__main__
Gene
p258
(dp259
g13
F51.063293378021257
sba(i__main__
Gene
p260
(dp261
g13
F-53.458580054505688
sba(i__main__
Gene
p262
(dp263
g13
F39.907807060057941
sba(i__main__
Gene
p264
(dp265
g13
F-3742.6163432141693
sba(i__main__
Gene
p266
(dp267
g13
F18518.596828099417
sba(i__main__
Gene
p268
(dp269
g13
F-44023.518569908047
sba(i__main__
Gene
p270
(dp271
g13
F18532.967766810518
sba(i__main__
Gene
p272
(dp273
g13
F-25115.379556055756
sba(i__main__
Gene
p274
(dp275
g13
F23310.96498068131
sba(i__main__
Gene
p276
(dp277
g13
F-193.0077639096188
sba(i__main__
Gene
p278
(dp279
g13
F166.98767290088711
sba(i__main__
Gene
p280
(dp281
g13
F-772.48865426477039
sba(i__main__
Gene
p282
(dp283
g13
F486.3966577642712
sba(i__main__
Gene
p284
(dp285
g13
F-367.0205541229667
sba(i__main__
Gene
p286
(dp287
g13
F17.32773448613445
sba(i__main__
Gene
p288
(dp289
g13
F-27.50342929305458
sba(i__main__
Gene
p290
(dp291
g13
F18.134251358573607
sba(i__main__
Gene
p292
(dp293
g13
F-72.163179805596201
sba(i__main__
Gene
p294
(dp295
g13
F13.203286338080456
sba(i__main__
Gene
p296
(dp297
g13
F-15.825995840176603
sba(i__main__
Gene
p298
(dp299
g13
F48.496961685207872
sba(i__main__
Gene
p300
(dp301
g13
F-795.35942469113797
sba(i__main__
Gene
p302
(dp303
g13
F41416.179145587652
sba(i__main__
Gene
p304
(dp305
g13
F-12588.523444513739
sba(i__main__
Gene
p306
(dp307
g13
F36232.51417261082
sba(i__main__
Gene
p308
(dp309
g13
F-41619.615540319966
sba(i__main__
Gene
p310
(dp311
g13
F23692.299861883926
sba(i__main__
Gene
p312
(dp313
g13
F-310.94013203580698
sba(i__main__
Gene
p314
(dp315
g13
F652.64038167663887
sba(i__main__
Gene
p316
(dp317
g13
F-604.43520193601034
sba(i__main__
Gene
p318
(dp319
g13
F368.06128060276546
sba(i__main__
Gene
p320
(dp321
g13
F-857.03356164594504
sba(i__main__
Gene
p322
(dp323
g13
F627.92261209166043
sba(i__main__
Gene
p324
(dp325
g13
F-67.881554161783271
sba(i__main__
Gene
p326
(dp327
g13
F12.389002632760649
sba(i__main__
Gene
p328
(dp329
g13
F-10.319325435706148
sba(i__main__
Gene
p330
(dp331
g13
F76.851875108479305
sba(i__main__
Gene
p332
(dp333
g13
F-99.331262679425251
sba(i__main__
Gene
p334
(dp335
g13
F18.900536080641363
sba(i__main__
Gene
p336
(dp337
g13
F-48026.889968021358
sba(i__main__
Gene
p338
(dp339
g13
F40986.950406840435
sba(i__main__
Gene
p340
(dp341
g13
F-37112.216536405642
sba(i__main__
Gene
p342
(dp343
g13
F40158.031962547182
sba(i__main__
Gene
p344
(dp345
g13
F-44124.90965580858
sba(i__main__
Gene
p346
(dp347
g13
F38828.766638532397
sba(i__main__
Gene
p348
(dp349
g13
F-150.53467884136478
sba(i__main__
Gene
p350
(dp351
g13
F95.43327186540796
sba(i__main__
Gene
p352
(dp353
g13
F-566.5605848620869
sba(i__main__
Gene
p354
(dp355
g13
F958.06293727317689
sba(i__main__
Gene
p356
(dp357
g13
F-892.75328410513055
sba(i__main__
Gene
p358
(dp359
g13
F829.3443319669567
sba(i__main__
Gene
p360
(dp361
g13
F-4.7987764818715419
sba(i__main__
Gene
p362
(dp363
g13
F9.2742404529069127
sba(i__main__
Gene
p364
(dp365
g13
F-35.136753241989851
sba(i__main__
Gene
p366
(dp367
g13
F43.822252995856957
sba(i__main__
Gene
p368
(dp369
g13
F-37.442175093680561
sba(i__main__
Gene
p370
(dp371
g13
F56.020212510113424
sba(i__main__
Gene
p372
(dp373
g13
F-10555.772114064122
sba(i__main__
Gene
p374
(dp375
g13
F1139.1984888166062
sba(i__main__
Gene
p376
(dp377
g13
F-9237.1874486590168
sba(i__main__
Gene
p378
(dp379
g13
F33736.544397925332
sba(i__main__
Gene
p380
(dp381
g13
F-43787.647983038187
sba(i__main__
Gene
p382
(dp383
g13
F8185.6370975443069
sba(i__main__
Gene
p384
(dp385
g13
F-796.04428918245219
sba(i__main__
Gene
p386
(dp387
g13
F38.760572979423593
sba(i__main__
Gene
p388
(dp389
g13
F-528.2262704983699
sba(i__main__
Gene
p390
(dp391
g13
F277.44224917174012
sba(i__main__
Gene
p392
(dp393
g13
F-952.85955004467041
sba(i__main__
Gene
p394
(dp395
g13
F864.43756965906402
sba(i__main__
Gene
p396
(dp397
g13
F-27.887322626223792
sba(i__main__
Gene
p398
(dp399
g13
F75.77302606672454
sba(i__main__
Gene
p400
(dp401
g13
F-95.418798251335446
sba(i__main__
Gene
p402
(dp403
g13
F8.8107493175281331
sba(i__main__
Gene
p404
(dp405
g13
F-18.448112900541176
sba(i__main__
Gene
p406
(dp407
g13
F39.090169012657519
sba(i__main__
Gene
p408
(dp409
g13
F-10430.522457519284
sba(i__main__
Gene
p410
(dp411
g13
F38911.949670947004
sba(i__main__
Gene
p412
(dp413
g13
F-2221.4701303421898
sba(i__main__
Gene
p414
(dp415
g13
F47686.546041116169
sba(i__main__
Gene
p416
(dp417
g13
F-7432.0008103193322
sba(i__main__
Gene
p418
(dp419
g13
F8385.0658653938881
sba(i__main__
Gene
p420
(dp421
g13
F-39.707372189896091
sba(i__main__
Gene
p422
(dp423
g13
F199.4002180245127
sba(i__main__
Gene
p424
(dp425
g13
F-982.08969461325057
sba(i__main__
Gene
p426
(dp427
g13
F877.22483598333577
sba(i__main__
Gene
p428
(dp429
g13
F-552.00826483747369
sba(i__main__
Gene
p430
(dp431
g13
F590.02328483909719
sba(i__main__
Gene
p432
(dp433
g13
F-1.3505911865270548
sba(i__main__
Gene
p434
(dp435
g13
F41.550259472433574
sba(i__main__
Gene
p436
(dp437
g13
F-73.363894795192394
sba(i__main__
Gene
p438
(dp439
g13
F54.734429930659381
sba(i__main__
Gene
p440
(dp441
g13
F-20.399339089060234
sba(i__main__
Gene
p442
(dp443
g13
F85.92523916042019
sbatRp444
(dp445
S'fitness'
p446
g7
(cdeap.creator
fitness
p447
c__builtin__
object
p448
NtRp449
(dp450
S'wvalues'
p451
(F514.79999999999995
tp452
sbsbag7
(g8
g9
(lp453
(i__main__
Gene
p454
(dp455
g13
F-31690.842900429412
sba(i__main__
Gene
p456
(dp457
g13
F2212.80396687649
sba(i__main__
Gene
p458
(dp459
g13
F-25584.679406591949
sba(i__main__
Gene
p460
(dp461
g13
F21170.883366717022
sba(i__main__
Gene
p462
(dp463
g13
F-1762.0202961740069
sba(i__main__
Gene
p464
(dp465
g13
F15279.183401286858
sba(i__main__
Gene
p466
(dp467
g13
F-871.70075043065276
sba(i__main__
Gene
p468
(dp469
g13
F834.32251877661611
sba(i__main__
Gene
p470
(dp471
g13
F-514.50384716744736
sba(i__main__
Gene
p472
(dp473
g13
F97.642490763766745
sba(i__main__
Gene
p474
(dp475
g13
F-760.62819992146444
sba(i__main__
Gene
p476
(dp477
g13
F954.84624473142503
sba(i__main__
Gene
p478
(dp479
g13
F-17.993342607898271
sba(i__main__
Gene
p480
(dp481
g13
F52.127143269324975
sba(i__main__
Gene
p482
(dp483
g13
F-53.865365428026948
sba(i__main__
Gene
p484
(dp485
g13
F66.419531505778977
sba(i__main__
Gene
p486
(dp487
g13
F-38.048151225879693
sba(i__main__
Gene
p488
(dp489
g13
F6.3564007350872416
sba(i__main__
Gene
p490
(dp491
g13
F-45593.036496864406
sba(i__main__
Gene
p492
(dp493
g13
F5764.6746472146315
sba(i__main__
Gene
p494
(dp495
g13
F-25845.40602507702
sba(i__main__
Gene
p496
(dp497
g13
F33871.260834015804
sba(i__main__
Gene
p498
(dp499
g13
F-28122.271595014125
sba(i__main__
Gene
p500
(dp501
g13
F33863.993159813654
sba(i__main__
Gene
p502
(dp503
g13
F-26.74952807838838
sba(i__main__
Gene
p504
(dp505
g13
F475.4713146961447
sba(i__main__
Gene
p506
(dp507
g13
F-342.71667441984357
sba(i__main__
Gene
p508
(dp509
g13
F810.95979778668277
sba(i__main__
Gene
p510
(dp511
g13
F-18.806084558472094
sba(i__main__
Gene
p512
(dp513
g13
F253.28786785228363
sba(i__main__
Gene
p514
(dp515
g13
F-5.2801285139922811
sba(i__main__
Gene
p516
(dp517
g13
F85.922711757369044
sba(i__main__
Gene
p518
(dp519
g13
F-99.831674237811029
sba(i__main__
Gene
p520
(dp521
g13
F21.690970546170362
sba(i__main__
Gene
p522
(dp523
g13
F-79.958760202502447
sba(i__main__
Gene
p524
(dp525
g13
F74.356976691624567
sba(i__main__
Gene
p526
(dp527
g13
F-44818.490447855576
sba(i__main__
Gene
p528
(dp529
g13
F20146.609804808435
sba(i__main__
Gene
p530
(dp531
g13
F-1078.1948778582373
sba(i__main__
Gene
p532
(dp533
g13
F34943.4022404649
sba(i__main__
Gene
p534
(dp535
g13
F-10713.994223394366
sba(i__main__
Gene
p536
(dp537
g13
F14370.936224926678
sba(i__main__
Gene
p538
(dp539
g13
F-265.74563636052108
sba(i__main__
Gene
p540
(dp541
g13
F548.34348504439686
sba(i__main__
Gene
p542
(dp543
g13
F-83.170918798249431
sba(i__main__
Gene
p544
(dp545
g13
F183.08615806428497
sba(i__main__
Gene
p546
(dp547
g13
F-109.78996515745655
sba(i__main__
Gene
p548
(dp549
g13
F683.75533990796976
sba(i__main__
Gene
p550
(dp551
g13
F-49.575806106081885
sba(i__main__
Gene
p552
(dp553
g13
F40.318157528776688
sba(i__main__
Gene
p554
(dp555
g13
F-98.347639995108096
sba(i__main__
Gene
p556
(dp557
g13
F91.817262674423844
sba(i__main__
Gene
p558
(dp559
g13
F-70.212407151566552
sba(i__main__
Gene
p560
(dp561
g13
F37.892226635221263
sba(i__main__
Gene
p562
(dp563
g13
F-45069.422242981469
sba(i__main__
Gene
p564
(dp565
g13
F28704.756296446361
sba(i__main__
Gene
p566
(dp567
g13
F-9814.1152587467514
sba(i__main__
Gene
p568
(dp569
g13
F31948.338449129635
sba(i__main__
Gene
p570
(dp571
g13
F-41780.145661562725
sba(i__main__
Gene
p572
(dp573
g13
F27080.14629919083
sba(i__main__
Gene
p574
(dp575
g13
F-639.04695937088638
sba(i__main__
Gene
p576
(dp577
g13
F891.68415210986143
sba(i__main__
Gene
p578
(dp579
g13
F-472.82935773493227
sba(i__main__
Gene
p580
(dp581
g13
F331.95784005204689
sba(i__main__
Gene
p582
(dp583
g13
F-92.730945429264921
sba(i__main__
Gene
p584
(dp585
g13
F223.09114242359595
sba(i__main__
Gene
p586
(dp587
g13
F-82.270290707141172
sba(i__main__
Gene
p588
(dp589
g13
F82.265445941126657
sba(i__main__
Gene
p590
(dp591
g13
F-33.804459086698429
sba(i__main__
Gene
p592
(dp593
g13
F24.531584035006581
sba(i__main__
Gene
p594
(dp595
g13
F-83.061151061774538
sba(i__main__
Gene
p596
(dp597
g13
F79.242334696594909
sba(i__main__
Gene
p598
(dp599
g13
F-9113.0360331343909
sba(i__main__
Gene
p600
(dp601
g13
F1649.4436083665007
sba(i__main__
Gene
p602
(dp603
g13
F-18387.570485144093
sba(i__main__
Gene
p604
(dp605
g13
F39297.77244029483
sba(i__main__
Gene
p606
(dp607
g13
F-39168.818295541903
sba(i__main__
Gene
p608
(dp609
g13
F3850.1473090978516
sba(i__main__
Gene
p610
(dp611
g13
F-83.751691854487831
sba(i__main__
Gene
p612
(dp613
g13
F2.6959646775743806
sba(i__main__
Gene
p614
(dp615
g13
F-764.62990022005852
sba(i__main__
Gene
p616
(dp617
g13
F597.99137271045186
sba(i__main__
Gene
p618
(dp619
g13
F-780.6977982379351
sba(i__main__
Gene
p620
(dp621
g13
F113.75953743960687
sba(i__main__
Gene
p622
(dp623
g13
F-58.635428285259131
sba(i__main__
Gene
p624
(dp625
g13
F98.427831472787886
sba(i__main__
Gene
p626
(dp627
g13
F-12.660841988132248
sba(i__main__
Gene
p628
(dp629
g13
F88.319555129334333
sba(i__main__
Gene
p630
(dp631
g13
F-83.716909857771299
sba(i__main__
Gene
p632
(dp633
g13
F53.833045441279893
sba(i__main__
Gene
p634
(dp635
g13
F-29981.545001876173
sba(i__main__
Gene
p636
(dp637
g13
F22064.662979699115
sba(i__main__
Gene
p638
(dp639
g13
F-26952.398814281943
sba(i__main__
Gene
p640
(dp641
g13
F3101.986097610662
sba(i__main__
Gene
p642
(dp643
g13
F-35623.482133974365
sba(i__main__
Gene
p644
(dp645
g13
F14659.707750712121
sba(i__main__
Gene
p646
(dp647
g13
F-844.13041737675542
sba(i__main__
Gene
p648
(dp649
g13
F153.19286293090241
sba(i__main__
Gene
p650
(dp651
g13
F-778.7853148743427
sba(i__main__
Gene
p652
(dp653
g13
F339.68091455734327
sba(i__main__
Gene
p654
(dp655
g13
F-53.402631567376716
sba(i__main__
Gene
p656
(dp657
g13
F885.96123230311503
sba(i__main__
Gene
p658
(dp659
g13
F-3.6307886519428507
sba(i__main__
Gene
p660
(dp661
g13
F65.170295697021558
sba(i__main__
Gene
p662
(dp663
g13
F-5.6335050443643553
sba(i__main__
Gene
p664
(dp665
g13
F99.62584846814751
sba(i__main__
Gene
p666
(dp667
g13
F-91.69144352505009
sba(i__main__
Gene
p668
(dp669
g13
F44.974018449040521
sba(i__main__
Gene
p670
(dp671
g13
F-25260.84400765087
sba(i__main__
Gene
p672
(dp673
g13
F12760.785506547358
sba(i__main__
Gene
p674
(dp675
g13
F-2339.068655199575
sba(i__main__
Gene
p676
(dp677
g13
F46251.109396318709
sba(i__main__
Gene
p678
(dp679
g13
F-18759.031795182003
sba(i__main__
Gene
p680
(dp681
g13
F8508.5035248723125
sba(i__main__
Gene
p682
(dp683
g13
F-37.295557703929944
sba(i__main__
Gene
p684
(dp685
g13
F992.94785728687748
sba(i__main__
Gene
p686
(dp687
g13
F-779.96927582037938
sba(i__main__
Gene
p688
(dp689
g13
F207.69367501434667
sba(i__main__
Gene
p690
(dp691
g13
F-868.04042513392392
sba(i__main__
Gene
p692
(dp693
g13
F90.147333374260285
sba(i__main__
Gene
p694
(dp695
g13
F-7.1147027103385341
sba(i__main__
Gene
p696
(dp697
g13
F50.513242937894532
sba(i__main__
Gene
p698
(dp699
g13
F-26.90778748819082
sba(i__main__
Gene
p700
(dp701
g13
F43.131274743933012
sba(i__main__
Gene
p702
(dp703
g13
F-73.407050846364754
sba(i__main__
Gene
p704
(dp705
g13
F1.8321544854910554
sba(i__main__
Gene
p706
(dp707
g13
F-1177.2011327266155
sba(i__main__
Gene
p708
(dp709
g13
F28191.279232706227
sba(i__main__
Gene
p710
(dp711
g13
F-723.87734339691087
sba(i__main__
Gene
p712
(dp713
g13
F29193.481130786826
sba(i__main__
Gene
p714
(dp715
g13
F-697.7960440145107
sba(i__main__
Gene
p716
(dp717
g13
F13322.379366319361
sba(i__main__
Gene
p718
(dp719
g13
F-344.02666478585036
sba(i__main__
Gene
p720
(dp721
g13
F51.960581151445304
sba(i__main__
Gene
p722
(dp723
g13
F-759.15421426243222
sba(i__main__
Gene
p724
(dp725
g13
F805.63681748241925
sba(i__main__
Gene
p726
(dp727
g13
F-666.7234820708934
sba(i__main__
Gene
p728
(dp729
g13
F300.4366170725462
sba(i__main__
Gene
p730
(dp731
g13
F-5.6463418889247095
sba(i__main__
Gene
p732
(dp733
g13
F38.512397138169582
sba(i__main__
Gene
p734
(dp735
g13
F-29.80353407372796
sba(i__main__
Gene
p736
(dp737
g13
F31.651444353134373
sba(i__main__
Gene
p738
(dp739
g13
F-54.055434836418762
sba(i__main__
Gene
p740
(dp741
g13
F45.334330433539819
sba(i__main__
Gene
p742
(dp743
g13
F-9771.2252045901259
sba(i__main__
Gene
p744
(dp745
g13
F40354.902522633398
sba(i__main__
Gene
p746
(dp747
g13
F-43115.784028722381
sba(i__main__
Gene
p748
(dp749
g13
F32973.208211189165
sba(i__main__
Gene
p750
(dp751
g13
F-39317.930949053334
sba(i__main__
Gene
p752
(dp753
g13
F23176.192843725941
sba(i__main__
Gene
p754
(dp755
g13
F-849.87237757521132
sba(i__main__
Gene
p756
(dp757
g13
F170.31940215078544
sba(i__main__
Gene
p758
(dp759
g13
F-996.9404915225681
sba(i__main__
Gene
p760
(dp761
g13
F213.48292407228053
sba(i__main__
Gene
p762
(dp763
g13
F-398.69729101124528
sba(i__main__
Gene
p764
(dp765
g13
F330.32326879368014
sba(i__main__
Gene
p766
(dp767
g13
F-29.207049319397356
sba(i__main__
Gene
p768
(dp769
g13
F19.519594218081426
sba(i__main__
Gene
p770
(dp771
g13
F-23.911332971063132
sba(i__main__
Gene
p772
(dp773
g13
F96.350448538766287
sba(i__main__
Gene
p774
(dp775
g13
F-10.773951892018829
sba(i__main__
Gene
p776
(dp777
g13
F40.120302511767001
sba(i__main__
Gene
p778
(dp779
g13
F-34060.807932458505
sba(i__main__
Gene
p780
(dp781
g13
F28864.68858215884
sba(i__main__
Gene
p782
(dp783
g13
F-12395.78752932122
sba(i__main__
Gene
p784
(dp785
g13
F13300.468608986675
sba(i__main__
Gene
p786
(dp787
g13
F-9396.4144423256948
sba(i__main__
Gene
p788
(dp789
g13
F46284.198487150956
sba(i__main__
Gene
p790
(dp791
g13
F-808.41082304857468
sba(i__main__
Gene
p792
(dp793
g13
F764.31953272722865
sba(i__main__
Gene
p794
(dp795
g13
F-348.78511075216875
sba(i__main__
Gene
p796
(dp797
g13
F220.85230321475436
sba(i__main__
Gene
p798
(dp799
g13
F-30.805885718864829
sba(i__main__
Gene
p800
(dp801
g13
F450.24337227066724
sba(i__main__
Gene
p802
(dp803
g13
F-7.6605140293322478
sba(i__main__
Gene
p804
(dp805
g13
F43.223857283539701
sba(i__main__
Gene
p806
(dp807
g13
F-93.274788124895963
sba(i__main__
Gene
p808
(dp809
g13
F95.655300633907757
sba(i__main__
Gene
p810
(dp811
g13
F-22.396247453390146
sba(i__main__
Gene
p812
(dp813
g13
F72.462131810345355
sba(i__main__
Gene
p814
(dp815
g13
F-28762.688880011061
sba(i__main__
Gene
p816
(dp817
g13
F19801.567233984009
sba(i__main__
Gene
p818
(dp819
g13
F-1893.0472900257009
sba(i__main__
Gene
p820
(dp821
g13
F18913.918721878064
sba(i__main__
Gene
p822
(dp823
g13
F-30849.92286064964
sba(i__main__
Gene
p824
(dp825
g13
F6390.1380021923496
sba(i__main__
Gene
p826
(dp827
g13
F-938.36908527891342
sba(i__main__
Gene
p828
(dp829
g13
F556.90380172105733
sba(i__main__
Gene
p830
(dp831
g13
F-249.26010979983994
sba(i__main__
Gene
p832
(dp833
g13
F462.37762592803398
sba(i__main__
Gene
p834
(dp835
g13
F-604.55466707156666
sba(i__main__
Gene
p836
(dp837
g13
F670.43149099996197
sba(i__main__
Gene
p838
(dp839
g13
F-74.45228292409243
sba(i__main__
Gene
p840
(dp841
g13
F18.149342691694091
sba(i__main__
Gene
p842
(dp843
g13
F-6.0377808972547768
sba(i__main__
Gene
p844
(dp845
g13
F94.874037787772451
sba(i__main__
Gene
p846
(dp847
g13
F-19.894161315504562
sba(i__main__
Gene
p848
(dp849
g13
F28.394392136571845
sba(i__main__
Gene
p850
(dp851
g13
F-43863.260265567042
sba(i__main__
Gene
p852
(dp853
g13
F13501.287627903022
sba(i__main__
Gene
p854
(dp855
g13
F-15222.670429287937
sba(i__main__
Gene
p856
(dp857
g13
F41821.752922751992
sba(i__main__
Gene
p858
(dp859
g13
F-41416.899244312452
sba(i__main__
Gene
p860
(dp861
g13
F16055.684394008576
sba(i__main__
Gene
p862
(dp863
g13
F-18.870307122504869
sba(i__main__
Gene
p864
(dp865
g13
F936.61683263809823
sba(i__main__
Gene
p866
(dp867
g13
F-192.57275441210027
sba(i__main__
Gene
p868
(dp869
g13
F413.85497170649455
sba(i__main__
Gene
p870
(dp871
g13
F-950.02825909345825
sba(i__main__
Gene
p872
(dp873
g13
F124.60655280300348
sba(i__main__
Gene
p874
(dp875
g13
F-4.474175288608194
sba(i__main__
Gene
p876
(dp877
g13
F14.033565566291839
sba(i__main__
Gene
p878
(dp879
g13
F-11.774501521013605
sba(i__main__
Gene
p880
(dp881
g13
F80.126953986418727
sba(i__main__
Gene
p882
(dp883
g13
F-80.777472439045908
sba(i__main__
Gene
p884
(dp885
g13
F2.4178907456647303
sbatRp886
(dp887
g446
g7
(g447
g448
NtRp888
(dp889
g451
(F542.60000000000002
tp890
sbsbag7
(g8
g9
(lp891
(i__main__
Gene
p892
(dp893
g13
F-26815.15853500212
sba(i__main__
Gene
p894
(dp895
g13
F14147.694249358437
sba(i__main__
Gene
p896
(dp897
g13
F-26613.99352651717
sba(i__main__
Gene
p898
(dp899
g13
F18056.115335065122
sba(i__main__
Gene
p900
(dp901
g13
F-5992.9432878322332
sba(i__main__
Gene
p902
(dp903
g13
F43336.503342699005
sba(i__main__
Gene
p904
(dp905
g13
F-517.30749299505374
sba(i__main__
Gene
p906
(dp907
g13
F615.87954801007891
sba(i__main__
Gene
p908
(dp909
g13
F-533.46633944196606
sba(i__main__
Gene
p910
(dp911
g13
F168.18650677788449
sba(i__main__
Gene
p912
(dp913
g13
F-75.221145736478206
sba(i__main__
Gene
p914
(dp915
g13
F7.5019611553411858
sba(i__main__
Gene
p916
(dp917
g13
F-87.559184660160966
sba(i__main__
Gene
p918
(dp919
g13
F99.971577900183803
sba(i__main__
Gene
p920
(dp921
g13
F-86.119313632566048
sba(i__main__
Gene
p922
(dp923
g13
F32.64816203822518
sba(i__main__
Gene
p924
(dp925
g13
F-4.21310529415166
sba(i__main__
Gene
p926
(dp927
g13
F69.53770000395842
sba(i__main__
Gene
p928
(dp929
g13
F-44626.383592076811
sba(i__main__
Gene
p930
(dp931
g13
F8515.9045559048936
sba(i__main__
Gene
p932
(dp933
g13
F-19877.824570830337
sba(i__main__
Gene
p934
(dp935
g13
F21088.06367501499
sba(i__main__
Gene
p936
(dp937
g13
F-9894.3632588534529
sba(i__main__
Gene
p938
(dp939
g13
F18791.959563364358
sba(i__main__
Gene
p940
(dp941
g13
F-984.41333529759299
sba(i__main__
Gene
p942
(dp943
g13
F67.398098494655386
sba(i__main__
Gene
p944
(dp945
g13
F-209.2143036901482
sba(i__main__
Gene
p946
(dp947
g13
F427.36894444747031
sba(i__main__
Gene
p948
(dp949
g13
F-559.47615150690388
sba(i__main__
Gene
p950
(dp951
g13
F828.81081779710098
sba(i__main__
Gene
p952
(dp953
g13
F-7.005881659827466
sba(i__main__
Gene
p954
(dp955
g13
F39.066447489960012
sba(i__main__
Gene
p956
(dp957
g13
F-67.875600336745748
sba(i__main__
Gene
p958
(dp959
g13
F4.0053719690762328
sba(i__main__
Gene
p960
(dp961
g13
F-37.424750582461897
sba(i__main__
Gene
p962
(dp963
g13
F17.625876130468633
sba(i__main__
Gene
p964
(dp965
g13
F-7038.6369576360667
sba(i__main__
Gene
p966
(dp967
g13
F21294.706648713065
sba(i__main__
Gene
p968
(dp969
g13
F-13276.228266163853
sba(i__main__
Gene
p970
(dp971
g13
F4719.2121690926779
sba(i__main__
Gene
p972
(dp973
g13
F-21272.185832472878
sba(i__main__
Gene
p974
(dp975
g13
F23299.957524452664
sba(i__main__
Gene
p976
(dp977
g13
F-693.65908086213926
sba(i__main__
Gene
p978
(dp979
g13
F298.39638923572852
sba(i__main__
Gene
p980
(dp981
g13
F-867.19219660428394
sba(i__main__
Gene
p982
(dp983
g13
F836.09369550983956
sba(i__main__
Gene
p984
(dp985
g13
F-635.12955086894658
sba(i__main__
Gene
p986
(dp987
g13
F542.14466701088645
sba(i__main__
Gene
p988
(dp989
g13
F-17.325101585972988
sba(i__main__
Gene
p990
(dp991
g13
F84.592274780417441
sba(i__main__
Gene
p992
(dp993
g13
F-68.499102337812687
sba(i__main__
Gene
p994
(dp995
g13
F34.530836046235912
sba(i__main__
Gene
p996
(dp997
g13
F-27.041607886158658
sba(i__main__
Gene
p998
(dp999
g13
F34.164835251238678
sba(i__main__
Gene
p1000
(dp1001
g13
F-14218.180913609976
sba(i__main__
Gene
p1002
(dp1003
g13
F36537.786535512394
sba(i__main__
Gene
p1004
(dp1005
g13
F-15017.219048545812
sba(i__main__
Gene
p1006
(dp1007
g13
F15051.815448824875
sba(i__main__
Gene
p1008
(dp1009
g13
F-27339.849753638227
sba(i__main__
Gene
p1010
(dp1011
g13
F27378.204276937886
sba(i__main__
Gene
p1012
(dp1013
g13
F-922.63053909673727
sba(i__main__
Gene
p1014
(dp1015
g13
F826.46041593805626
sba(i__main__
Gene
p1016
(dp1017
g13
F-639.58295839068683
sba(i__main__
Gene
p1018
(dp1019
g13
F107.27348986659734
sba(i__main__
Gene
p1020
(dp1021
g13
F-648.08745684429925
sba(i__main__
Gene
p1022
(dp1023
g13
F547.26699811866888
sba(i__main__
Gene
p1024
(dp1025
g13
F-46.290780265793153
sba(i__main__
Gene
p1026
(dp1027
g13
F55.022494927465345
sba(i__main__
Gene
p1028
(dp1029
g13
F-17.5960488811196
sba(i__main__
Gene
p1030
(dp1031
g13
F91.394223466137348
sba(i__main__
Gene
p1032
(dp1033
g13
F-48.003198833828385
sba(i__main__
Gene
p1034
(dp1035
g13
F97.192368683356591
sba(i__main__
Gene
p1036
(dp1037
g13
F-13004.688042948634
sba(i__main__
Gene
p1038
(dp1039
g13
F35714.179491676507
sba(i__main__
Gene
p1040
(dp1041
g13
F-26313.282780018017
sba(i__main__
Gene
p1042
(dp1043
g13
F34520.006867221913
sba(i__main__
Gene
p1044
(dp1045
g13
F-17061.687132937681
sba(i__main__
Gene
p1046
(dp1047
g13
F15076.748271507453
sba(i__main__
Gene
p1048
(dp1049
g13
F-781.10197835715064
sba(i__main__
Gene
p1050
(dp1051
g13
F559.53815106436241
sba(i__main__
Gene
p1052
(dp1053
g13
F-506.278196101839
sba(i__main__
Gene
p1054
(dp1055
g13
F286.27634800318725
sba(i__main__
Gene
p1056
(dp1057
g13
F-504.37659394057266
sba(i__main__
Gene
p1058
(dp1059
g13
F760.27280505076601
sba(i__main__
Gene
p1060
(dp1061
g13
F-78.790725787391168
sba(i__main__
Gene
p1062
(dp1063
g13
F23.13844652236795
sba(i__main__
Gene
p1064
(dp1065
g13
F-87.249229787449792
sba(i__main__
Gene
p1066
(dp1067
g13
F55.352193558038955
sba(i__main__
Gene
p1068
(dp1069
g13
F-62.630687558472445
sba(i__main__
Gene
p1070
(dp1071
g13
F8.8513745435926268
sba(i__main__
Gene
p1072
(dp1073
g13
F-38635.593228263097
sba(i__main__
Gene
p1074
(dp1075
g13
F11158.149032252195
sba(i__main__
Gene
p1076
(dp1077
g13
F-29137.929334405831
sba(i__main__
Gene
p1078
(dp1079
g13
F4640.2689982748425
sba(i__main__
Gene
p1080
(dp1081
g13
F-12309.802487499393
sba(i__main__
Gene
p1082
(dp1083
g13
F31050.170085478407
sba(i__main__
Gene
p1084
(dp1085
g13
F-756.44057949859462
sba(i__main__
Gene
p1086
(dp1087
g13
F264.00657285176243
sba(i__main__
Gene
p1088
(dp1089
g13
F-309.20389553903181
sba(i__main__
Gene
p1090
(dp1091
g13
F433.49542982640088
sba(i__main__
Gene
p1092
(dp1093
g13
F-767.89757721259184
sba(i__main__
Gene
p1094
(dp1095
g13
F231.50292893447576
sba(i__main__
Gene
p1096
(dp1097
g13
F-43.109408428580601
sba(i__main__
Gene
p1098
(dp1099
g13
F1.0725980150539605
sba(i__main__
Gene
p1100
(dp1101
g13
F-21.120994013712831
sba(i__main__
Gene
p1102
(dp1103
g13
F26.431712637908834
sba(i__main__
Gene
p1104
(dp1105
g13
F-4.8686583513381549
sba(i__main__
Gene
p1106
(dp1107
g13
F99.391724376998809
sba(i__main__
Gene
p1108
(dp1109
g13
F-21201.811085546622
sba(i__main__
Gene
p1110
(dp1111
g13
F6575.8460398253383
sba(i__main__
Gene
p1112
(dp1113
g13
F-44323.022485643582
sba(i__main__
Gene
p1114
(dp1115
g13
F32424.833263370048
sba(i__main__
Gene
p1116
(dp1117
g13
F-20227.022366675461
sba(i__main__
Gene
p1118
(dp1119
g13
F34238.318988042411
sba(i__main__
Gene
p1120
(dp1121
g13
F-469.53064991144254
sba(i__main__
Gene
p1122
(dp1123
g13
F835.09131164556152
sba(i__main__
Gene
p1124
(dp1125
g13
F-840.97743834507901
sba(i__main__
Gene
p1126
(dp1127
g13
F139.90794830940766
sba(i__main__
Gene
p1128
(dp1129
g13
F-427.86867381505749
sba(i__main__
Gene
p1130
(dp1131
g13
F745.58769189678583
sba(i__main__
Gene
p1132
(dp1133
g13
F-0.96946822144343514
sba(i__main__
Gene
p1134
(dp1135
g13
F49.91418999409256
sba(i__main__
Gene
p1136
(dp1137
g13
F-74.653111370546242
sba(i__main__
Gene
p1138
(dp1139
g13
F77.88013801097317
sba(i__main__
Gene
p1140
(dp1141
g13
F-55.053034653957141
sba(i__main__
Gene
p1142
(dp1143
g13
F38.983174897041074
sba(i__main__
Gene
p1144
(dp1145
g13
F-5328.8337358260978
sba(i__main__
Gene
p1146
(dp1147
g13
F34731.224138851088
sba(i__main__
Gene
p1148
(dp1149
g13
F-3422.8619506199466
sba(i__main__
Gene
p1150
(dp1151
g13
F13752.656176844774
sba(i__main__
Gene
p1152
(dp1153
g13
F-30098.269636589874
sba(i__main__
Gene
p1154
(dp1155
g13
F44456.904250239233
sba(i__main__
Gene
p1156
(dp1157
g13
F-367.39817142484264
sba(i__main__
Gene
p1158
(dp1159
g13
F706.94221298510058
sba(i__main__
Gene
p1160
(dp1161
g13
F-685.57354419455021
sba(i__main__
Gene
p1162
(dp1163
g13
F228.11876947334608
sba(i__main__
Gene
p1164
(dp1165
g13
F-754.58179132982946
sba(i__main__
Gene
p1166
(dp1167
g13
F571.29361189819588
sba(i__main__
Gene
p1168
(dp1169
g13
F-30.545811965547827
sba(i__main__
Gene
p1170
(dp1171
g13
F35.573495264529178
sba(i__main__
Gene
p1172
(dp1173
g13
F-2.0838257091869679
sba(i__main__
Gene
p1174
(dp1175
g13
F65.356195683505447
sba(i__main__
Gene
p1176
(dp1177
g13
F-74.702934909735092
sba(i__main__
Gene
p1178
(dp1179
g13
F85.908803353494363
sba(i__main__
Gene
p1180
(dp1181
g13
F-26838.765480974158
sba(i__main__
Gene
p1182
(dp1183
g13
F39896.401361585544
sba(i__main__
Gene
p1184
(dp1185
g13
F-31495.167399083195
sba(i__main__
Gene
p1186
(dp1187
g13
F29426.606409135111
sba(i__main__
Gene
p1188
(dp1189
g13
F-30576.299865944635
sba(i__main__
Gene
p1190
(dp1191
g13
F17725.486883815407
sba(i__main__
Gene
p1192
(dp1193
g13
F-964.18233473075475
sba(i__main__
Gene
p1194
(dp1195
g13
F738.24671128075204
sba(i__main__
Gene
p1196
(dp1197
g13
F-66.968363448689047
sba(i__main__
Gene
p1198
(dp1199
g13
F380.51040584467711
sba(i__main__
Gene
p1200
(dp1201
g13
F-920.20825188482684
sba(i__main__
Gene
p1202
(dp1203
g13
F63.431276764188027
sba(i__main__
Gene
p1204
(dp1205
g13
F-15.717648010691647
sba(i__main__
Gene
p1206
(dp1207
g13
F63.860742800707918
sba(i__main__
Gene
p1208
(dp1209
g13
F-75.336733205821531
sba(i__main__
Gene
p1210
(dp1211
g13
F15.41716012281209
sba(i__main__
Gene
p1212
(dp1213
g13
F-66.897385858342929
sba(i__main__
Gene
p1214
(dp1215
g13
F94.014947159727086
sba(i__main__
Gene
p1216
(dp1217
g13
F-4576.817911827311
sba(i__main__
Gene
p1218
(dp1219
g13
F31974.749799828507
sba(i__main__
Gene
p1220
(dp1221
g13
F-26349.992620185749
sba(i__main__
Gene
p1222
(dp1223
g13
F48062.555441130185
sba(i__main__
Gene
p1224
(dp1225
g13
F-45860.442578297872
sba(i__main__
Gene
p1226
(dp1227
g13
F4809.6343929265577
sba(i__main__
Gene
p1228
(dp1229
g13
F-385.60748348493019
sba(i__main__
Gene
p1230
(dp1231
g13
F256.50113263603026
sba(i__main__
Gene
p1232
(dp1233
g13
F-411.26128133098496
sba(i__main__
Gene
p1234
(dp1235
g13
F817.44507226451685
sba(i__main__
Gene
p1236
(dp1237
g13
F-554.48587662857619
sba(i__main__
Gene
p1238
(dp1239
g13
F675.4617953048994
sba(i__main__
Gene
p1240
(dp1241
g13
F-54.644131493386169
sba(i__main__
Gene
p1242
(dp1243
g13
F72.90792574633241
sba(i__main__
Gene
p1244
(dp1245
g13
F-70.357752108717349
sba(i__main__
Gene
p1246
(dp1247
g13
F78.150191820960501
sba(i__main__
Gene
p1248
(dp1249
g13
F-96.474477386320316
sba(i__main__
Gene
p1250
(dp1251
g13
F69.061625994174392
sba(i__main__
Gene
p1252
(dp1253
g13
F-33526.903006591834
sba(i__main__
Gene
p1254
(dp1255
g13
F24980.310259994767
sba(i__main__
Gene
p1256
(dp1257
g13
F-28781.33863774682
sba(i__main__
Gene
p1258
(dp1259
g13
F43425.847963627959
sba(i__main__
Gene
p1260
(dp1261
g13
F-45845.039465909431
sba(i__main__
Gene
p1262
(dp1263
g13
F43941.304028164785
sba(i__main__
Gene
p1264
(dp1265
g13
F-335.57784634839356
sba(i__main__
Gene
p1266
(dp1267
g13
F518.36550599332998
sba(i__main__
Gene
p1268
(dp1269
g13
F-994.65934010599517
sba(i__main__
Gene
p1270
(dp1271
g13
F729.26107933563696
sba(i__main__
Gene
p1272
(dp1273
g13
F-376.90222934879705
sba(i__main__
Gene
p1274
(dp1275
g13
F753.66558507709351
sba(i__main__
Gene
p1276
(dp1277
g13
F-79.700014144964882
sba(i__main__
Gene
p1278
(dp1279
g13
F99.813260678549312
sba(i__main__
Gene
p1280
(dp1281
g13
F-89.499196567814082
sba(i__main__
Gene
p1282
(dp1283
g13
F4.7616312373728871
sba(i__main__
Gene
p1284
(dp1285
g13
F-77.45434515231517
sba(i__main__
Gene
p1286
(dp1287
g13
F61.060454402256482
sba(i__main__
Gene
p1288
(dp1289
g13
F-10239.744865830966
sba(i__main__
Gene
p1290
(dp1291
g13
F28174.537691983493
sba(i__main__
Gene
p1292
(dp1293
g13
F-5540.559273066654
sba(i__main__
Gene
p1294
(dp1295
g13
F25115.505685512613
sba(i__main__
Gene
p1296
(dp1297
g13
F-591.18816777108441
sba(i__main__
Gene
p1298
(dp1299
g13
F38318.511376675553
sba(i__main__
Gene
p1300
(dp1301
g13
F-874.07540675294717
sba(i__main__
Gene
p1302
(dp1303
g13
F741.1462550009968
sba(i__main__
Gene
p1304
(dp1305
g13
F-15.684246859725931
sba(i__main__
Gene
p1306
(dp1307
g13
F429.43424099312091
sba(i__main__
Gene
p1308
(dp1309
g13
F-869.03497926718046
sba(i__main__
Gene
p1310
(dp1311
g13
F729.5141456166923
sba(i__main__
Gene
p1312
(dp1313
g13
F-10.950919069236733
sba(i__main__
Gene
p1314
(dp1315
g13
F50.446352343488869
sba(i__main__
Gene
p1316
(dp1317
g13
F-89.78553422676859
sba(i__main__
Gene
p1318
(dp1319
g13
F91.762099670024654
sba(i__main__
Gene
p1320
(dp1321
g13
F-34.069811843265583
sba(i__main__
Gene
p1322
(dp1323
g13
F35.437020996710523
sbatRp1324
(dp1325
g446
g7
(g447
g448
NtRp1326
(dp1327
g451
(F500.80000000000001
tp1328
sbsbag7
(g8
g9
(lp1329
(i__main__
Gene
p1330
(dp1331
g13
F-9150.1892126706371
sba(i__main__
Gene
p1332
(dp1333
g13
F14617.629340160785
sba(i__main__
Gene
p1334
(dp1335
g13
F-21032.985824088173
sba(i__main__
Gene
p1336
(dp1337
g13
F27569.207637306743
sba(i__main__
Gene
p1338
(dp1339
g13
F-40964.410908240367
sba(i__main__
Gene
p1340
(dp1341
g13
F44342.417106351058
sba(i__main__
Gene
p1342
(dp1343
g13
F-509.36140926161778
sba(i__main__
Gene
p1344
(dp1345
g13
F373.21084225286739
sba(i__main__
Gene
p1346
(dp1347
g13
F-500.32509535216883
sba(i__main__
Gene
p1348
(dp1349
g13
F451.62543487874308
sba(i__main__
Gene
p1350
(dp1351
g13
F-43.734634115517338
sba(i__main__
Gene
p1352
(dp1353
g13
F792.7333328893144
sba(i__main__
Gene
p1354
(dp1355
g13
F-90.75228240703612
sba(i__main__
Gene
p1356
(dp1357
g13
F49.267189450859291
sba(i__main__
Gene
p1358
(dp1359
g13
F-64.635203361371509
sba(i__main__
Gene
p1360
(dp1361
g13
F95.588262834642066
sba(i__main__
Gene
p1362
(dp1363
g13
F-68.711965892251314
sba(i__main__
Gene
p1364
(dp1365
g13
F45.361359204263586
sba(i__main__
Gene
p1366
(dp1367
g13
F-36327.94795767912
sba(i__main__
Gene
p1368
(dp1369
g13
F33207.565285858371
sba(i__main__
Gene
p1370
(dp1371
g13
F-18069.631828493679
sba(i__main__
Gene
p1372
(dp1373
g13
F631.0085039545155
sba(i__main__
Gene
p1374
(dp1375
g13
F-37916.364945359317
sba(i__main__
Gene
p1376
(dp1377
g13
F1632.6502580425949
sba(i__main__
Gene
p1378
(dp1379
g13
F-815.59747204586199
sba(i__main__
Gene
p1380
(dp1381
g13
F97.852267828185788
sba(i__main__
Gene
p1382
(dp1383
g13
F-644.32560264128983
sba(i__main__
Gene
p1384
(dp1385
g13
F709.53150059162374
sba(i__main__
Gene
p1386
(dp1387
g13
F-732.31653401113113
sba(i__main__
Gene
p1388
(dp1389
g13
F577.12203533941988
sba(i__main__
Gene
p1390
(dp1391
g13
F-56.066344818790405
sba(i__main__
Gene
p1392
(dp1393
g13
F82.922884222481301
sba(i__main__
Gene
p1394
(dp1395
g13
F-25.130383804743204
sba(i__main__
Gene
p1396
(dp1397
g13
F66.994662587799539
sba(i__main__
Gene
p1398
(dp1399
g13
F-22.233078767996943
sba(i__main__
Gene
p1400
(dp1401
g13
F84.88148479890009
sba(i__main__
Gene
p1402
(dp1403
g13
F-3728.6734802777064
sba(i__main__
Gene
p1404
(dp1405
g13
F10953.615779812479
sba(i__main__
Gene
p1406
(dp1407
g13
F-21609.168344408197
sba(i__main__
Gene
p1408
(dp1409
g13
F4036.7017646796717
sba(i__main__
Gene
p1410
(dp1411
g13
F-513.06141469565773
sba(i__main__
Gene
p1412
(dp1413
g13
F22316.541494272376
sba(i__main__
Gene
p1414
(dp1415
g13
F-379.11530859873574
sba(i__main__
Gene
p1416
(dp1417
g13
F89.824118642663819
sba(i__main__
Gene
p1418
(dp1419
g13
F-748.18109734659868
sba(i__main__
Gene
p1420
(dp1421
g13
F969.98187173301994
sba(i__main__
Gene
p1422
(dp1423
g13
F-825.54575153130907
sba(i__main__
Gene
p1424
(dp1425
g13
F578.58418146453755
sba(i__main__
Gene
p1426
(dp1427
g13
F-72.35222594427043
sba(i__main__
Gene
p1428
(dp1429
g13
F93.775553427454057
sba(i__main__
Gene
p1430
(dp1431
g13
F-71.493537962173434
sba(i__main__
Gene
p1432
(dp1433
g13
F20.130141656607371
sba(i__main__
Gene
p1434
(dp1435
g13
F-10.061770724709817
sba(i__main__
Gene
p1436
(dp1437
g13
F37.923005595607606
sba(i__main__
Gene
p1438
(dp1439
g13
F-32222.687860443919
sba(i__main__
Gene
p1440
(dp1441
g13
F7288.4702558385516
sba(i__main__
Gene
p1442
(dp1443
g13
F-33640.555915640878
sba(i__main__
Gene
p1444
(dp1445
g13
F38226.316666225321
sba(i__main__
Gene
p1446
(dp1447
g13
F-26801.86580701307
sba(i__main__
Gene
p1448
(dp1449
g13
F16681.604360826444
sba(i__main__
Gene
p1450
(dp1451
g13
F-738.56033147977223
sba(i__main__
Gene
p1452
(dp1453
g13
F519.52715029071169
sba(i__main__
Gene
p1454
(dp1455
g13
F-135.65689485224766
sba(i__main__
Gene
p1456
(dp1457
g13
F208.23733851452241
sba(i__main__
Gene
p1458
(dp1459
g13
F-797.2712858182033
sba(i__main__
Gene
p1460
(dp1461
g13
F0.13375115173164254
sba(i__main__
Gene
p1462
(dp1463
g13
F-38.895169446993968
sba(i__main__
Gene
p1464
(dp1465
g13
F38.502847586920616
sba(i__main__
Gene
p1466
(dp1467
g13
F-84.48224777030596
sba(i__main__
Gene
p1468
(dp1469
g13
F66.043072184810114
sba(i__main__
Gene
p1470
(dp1471
g13
F-22.986322053786949
sba(i__main__
Gene
p1472
(dp1473
g13
F70.829161385116109
sba(i__main__
Gene
p1474
(dp1475
g13
F-37426.665740675657
sba(i__main__
Gene
p1476
(dp1477
g13
F45575.018945792333
sba(i__main__
Gene
p1478
(dp1479
g13
F-41605.466093501469
sba(i__main__
Gene
p1480
(dp1481
g13
F2925.8073192709048
sba(i__main__
Gene
p1482
(dp1483
g13
F-3800.3138041484635
sba(i__main__
Gene
p1484
(dp1485
g13
F623.82360012706124
sba(i__main__
Gene
p1486
(dp1487
g13
F-769.55270928481787
sba(i__main__
Gene
p1488
(dp1489
g13
F728.53068195459991
sba(i__main__
Gene
p1490
(dp1491
g13
F-974.51483958956305
sba(i__main__
Gene
p1492
(dp1493
g13
F590.70035724225079
sba(i__main__
Gene
p1494
(dp1495
g13
F-538.94540299247785
sba(i__main__
Gene
p1496
(dp1497
g13
F185.38736386219944
sba(i__main__
Gene
p1498
(dp1499
g13
F-95.317642587940625
sba(i__main__
Gene
p1500
(dp1501
g13
F4.3680650278803634
sba(i__main__
Gene
p1502
(dp1503
g13
F-78.185732592335413
sba(i__main__
Gene
p1504
(dp1505
g13
F20.465345786226074
sba(i__main__
Gene
p1506
(dp1507
g13
F-26.253735059909758
sba(i__main__
Gene
p1508
(dp1509
g13
F49.162618236555069
sba(i__main__
Gene
p1510
(dp1511
g13
F-28039.138653323174
sba(i__main__
Gene
p1512
(dp1513
g13
F9805.5684402654788
sba(i__main__
Gene
p1514
(dp1515
g13
F-38053.578689787595
sba(i__main__
Gene
p1516
(dp1517
g13
F6200.4260798081323
sba(i__main__
Gene
p1518
(dp1519
g13
F-9388.2867740347356
sba(i__main__
Gene
p1520
(dp1521
g13
F15112.52687793851
sba(i__main__
Gene
p1522
(dp1523
g13
F-128.86930972879554
sba(i__main__
Gene
p1524
(dp1525
g13
F885.82443438053406
sba(i__main__
Gene
p1526
(dp1527
g13
F-324.4751605226752
sba(i__main__
Gene
p1528
(dp1529
g13
F475.34479599570943
sba(i__main__
Gene
p1530
(dp1531
g13
F-147.29154696289584
sba(i__main__
Gene
p1532
(dp1533
g13
F460.9388099559921
sba(i__main__
Gene
p1534
(dp1535
g13
F-5.0645204578013505
sba(i__main__
Gene
p1536
(dp1537
g13
F0.67754883821390388
sba(i__main__
Gene
p1538
(dp1539
g13
F-82.218818385490536
sba(i__main__
Gene
p1540
(dp1541
g13
F98.482859451208
sba(i__main__
Gene
p1542
(dp1543
g13
F-34.543459544631617
sba(i__main__
Gene
p1544
(dp1545
g13
F25.832736074967865
sba(i__main__
Gene
p1546
(dp1547
g13
F-39160.890356595766
sba(i__main__
Gene
p1548
(dp1549
g13
F45383.536270768294
sba(i__main__
Gene
p1550
(dp1551
g13
F-35063.8876934828
sba(i__main__
Gene
p1552
(dp1553
g13
F4848.3429561338971
sba(i__main__
Gene
p1554
(dp1555
g13
F-47297.57107163508
sba(i__main__
Gene
p1556
(dp1557
g13
F3422.8202550377741
sba(i__main__
Gene
p1558
(dp1559
g13
F-133.18810101521342
sba(i__main__
Gene
p1560
(dp1561
g13
F9.5878697330507023
sba(i__main__
Gene
p1562
(dp1563
g13
F-53.220165194457763
sba(i__main__
Gene
p1564
(dp1565
g13
F915.6491277713576
sba(i__main__
Gene
p1566
(dp1567
g13
F-359.3436072639546
sba(i__main__
Gene
p1568
(dp1569
g13
F263.57293458592557
sba(i__main__
Gene
p1570
(dp1571
g13
F-92.522756154748706
sba(i__main__
Gene
p1572
(dp1573
g13
F31.148606744790342
sba(i__main__
Gene
p1574
(dp1575
g13
F-41.199519447855593
sba(i__main__
Gene
p1576
(dp1577
g13
F58.119221328871703
sba(i__main__
Gene
p1578
(dp1579
g13
F-33.662901263478091
sba(i__main__
Gene
p1580
(dp1581
g13
F58.776969859008219
sba(i__main__
Gene
p1582
(dp1583
g13
F-24047.319319588154
sba(i__main__
Gene
p1584
(dp1585
g13
F38333.896332706754
sba(i__main__
Gene
p1586
(dp1587
g13
F-1347.568647471373
sba(i__main__
Gene
p1588
(dp1589
g13
F10497.515687832863
sba(i__main__
Gene
p1590
(dp1591
g13
F-39399.475337804026
sba(i__main__
Gene
p1592
(dp1593
g13
F39703.522243675659
sba(i__main__
Gene
p1594
(dp1595
g13
F-245.83643592001363
sba(i__main__
Gene
p1596
(dp1597
g13
F426.41408104270528
sba(i__main__
Gene
p1598
(dp1599
g13
F-287.20111690251895
sba(i__main__
Gene
p1600
(dp1601
g13
F152.00639663056737
sba(i__main__
Gene
p1602
(dp1603
g13
F-288.34220388604467
sba(i__main__
Gene
p1604
(dp1605
g13
F795.90797254577456
sba(i__main__
Gene
p1606
(dp1607
g13
F-38.111851452874475
sba(i__main__
Gene
p1608
(dp1609
g13
F58.361406360828738
sba(i__main__
Gene
p1610
(dp1611
g13
F-88.793556447102063
sba(i__main__
Gene
p1612
(dp1613
g13
F42.549745299374429
sba(i__main__
Gene
p1614
(dp1615
g13
F-41.534595906955971
sba(i__main__
Gene
p1616
(dp1617
g13
F77.754421954547084
sba(i__main__
Gene
p1618
(dp1619
g13
F-33760.664015699331
sba(i__main__
Gene
p1620
(dp1621
g13
F14818.93195941589
sba(i__main__
Gene
p1622
(dp1623
g13
F-4804.2859615552588
sba(i__main__
Gene
p1624
(dp1625
g13
F19719.0878633746
sba(i__main__
Gene
p1626
(dp1627
g13
F-25963.53576715511
sba(i__main__
Gene
p1628
(dp1629
g13
F34931.87043948831
sba(i__main__
Gene
p1630
(dp1631
g13
F-735.38899695854957
sba(i__main__
Gene
p1632
(dp1633
g13
F338.61906698939924
sba(i__main__
Gene
p1634
(dp1635
g13
F-521.8044604973154
sba(i__main__
Gene
p1636
(dp1637
g13
F293.13393855165702
sba(i__main__
Gene
p1638
(dp1639
g13
F-413.42196417806906
sba(i__main__
Gene
p1640
(dp1641
g13
F956.56320617735685
sba(i__main__
Gene
p1642
(dp1643
g13
F-71.301314643346089
sba(i__main__
Gene
p1644
(dp1645
g13
F46.699726302795163
sba(i__main__
Gene
p1646
(dp1647
g13
F-66.811039650151542
sba(i__main__
Gene
p1648
(dp1649
g13
F64.213984043773948
sba(i__main__
Gene
p1650
(dp1651
g13
F-1.4244223835117253
sba(i__main__
Gene
p1652
(dp1653
g13
F11.901174146315618
sba(i__main__
Gene
p1654
(dp1655
g13
F-15724.696193644028
sba(i__main__
Gene
p1656
(dp1657
g13
F38761.174172016879
sba(i__main__
Gene
p1658
(dp1659
g13
F-23846.077665708708
sba(i__main__
Gene
p1660
(dp1661
g13
F18373.525176314164
sba(i__main__
Gene
p1662
(dp1663
g13
F-1545.6390922731953
sba(i__main__
Gene
p1664
(dp1665
g13
F9059.6511703977285
sba(i__main__
Gene
p1666
(dp1667
g13
F-514.10965026795247
sba(i__main__
Gene
p1668
(dp1669
g13
F163.5241697174169
sba(i__main__
Gene
p1670
(dp1671
g13
F-72.973448286931784
sba(i__main__
Gene
p1672
(dp1673
g13
F580.34448085203633
sba(i__main__
Gene
p1674
(dp1675
g13
F-101.9440735030297
sba(i__main__
Gene
p1676
(dp1677
g13
F527.24633954124658
sba(i__main__
Gene
p1678
(dp1679
g13
F-76.885957029682416
sba(i__main__
Gene
p1680
(dp1681
g13
F46.691285026609407
sba(i__main__
Gene
p1682
(dp1683
g13
F-2.7980964132235897
sba(i__main__
Gene
p1684
(dp1685
g13
F0.29566470239372755
sba(i__main__
Gene
p1686
(dp1687
g13
F-9.6368667197482978
sba(i__main__
Gene
p1688
(dp1689
g13
F69.999938070066264
sba(i__main__
Gene
p1690
(dp1691
g13
F-16761.376302510384
sba(i__main__
Gene
p1692
(dp1693
g13
F1311.8493725826663
sba(i__main__
Gene
p1694
(dp1695
g13
F-37637.234331757107
sba(i__main__
Gene
p1696
(dp1697
g13
F18652.453267859179
sba(i__main__
Gene
p1698
(dp1699
g13
F-18644.073834381652
sba(i__main__
Gene
p1700
(dp1701
g13
F3682.9037638902846
sba(i__main__
Gene
p1702
(dp1703
g13
F-705.35841458884715
sba(i__main__
Gene
p1704
(dp1705
g13
F580.77821552983971
sba(i__main__
Gene
p1706
(dp1707
g13
F-38.984222632820661
sba(i__main__
Gene
p1708
(dp1709
g13
F669.28981170928614
sba(i__main__
Gene
p1710
(dp1711
g13
F-343.99934831664996
sba(i__main__
Gene
p1712
(dp1713
g13
F779.72194374918661
sba(i__main__
Gene
p1714
(dp1715
g13
F-27.831281970621674
sba(i__main__
Gene
p1716
(dp1717
g13
F54.691947272332996
sba(i__main__
Gene
p1718
(dp1719
g13
F-25.235495064713504
sba(i__main__
Gene
p1720
(dp1721
g13
F43.730763867490261
sba(i__main__
Gene
p1722
(dp1723
g13
F-64.55686875141032
sba(i__main__
Gene
p1724
(dp1725
g13
F88.095573839453394
sba(i__main__
Gene
p1726
(dp1727
g13
F-26881.530810066914
sba(i__main__
Gene
p1728
(dp1729
g13
F19644.522933046166
sba(i__main__
Gene
p1730
(dp1731
g13
F-40314.824480352094
sba(i__main__
Gene
p1732
(dp1733
g13
F11485.133018842365
sba(i__main__
Gene
p1734
(dp1735
g13
F-18583.627385314452
sba(i__main__
Gene
p1736
(dp1737
g13
F35520.670792007819
sba(i__main__
Gene
p1738
(dp1739
g13
F-755.20596794168284
sba(i__main__
Gene
p1740
(dp1741
g13
F482.8177464828205
sba(i__main__
Gene
p1742
(dp1743
g13
F-90.827918331114688
sba(i__main__
Gene
p1744
(dp1745
g13
F961.4543286208476
sba(i__main__
Gene
p1746
(dp1747
g13
F-667.38587248828208
sba(i__main__
Gene
p1748
(dp1749
g13
F919.16089250349432
sba(i__main__
Gene
p1750
(dp1751
g13
F-97.379419581789335
sba(i__main__
Gene
p1752
(dp1753
g13
F1.5573417384526334
sba(i__main__
Gene
p1754
(dp1755
g13
F-3.4216372049709776
sba(i__main__
Gene
p1756
(dp1757
g13
F11.969718930327566
sba(i__main__
Gene
p1758
(dp1759
g13
F-83.801548471251692
sba(i__main__
Gene
p1760
(dp1761
g13
F45.145184710052654
sbatRp1762
(dp1763
g446
g7
(g447
g448
NtRp1764
(dp1765
g451
(F508.80000000000001
tp1766
sbsbag7
(g8
g9
(lp1767
(i__main__
Gene
p1768
(dp1769
g13
F-17723.992991706811
sba(i__main__
Gene
p1770
(dp1771
g13
F23680.107006874307
sba(i__main__
Gene
p1772
(dp1773
g13
F-38344.012499424498
sba(i__main__
Gene
p1774
(dp1775
g13
F32636.200750050535
sba(i__main__
Gene
p1776
(dp1777
g13
F-35292.514062177841
sba(i__main__
Gene
p1778
(dp1779
g13
F47648.300311844294
sba(i__main__
Gene
p1780
(dp1781
g13
F-35.338038025676383
sba(i__main__
Gene
p1782
(dp1783
g13
F429.15049471879388
sba(i__main__
Gene
p1784
(dp1785
g13
F-72.188354765642885
sba(i__main__
Gene
p1786
(dp1787
g13
F584.42105573444246
sba(i__main__
Gene
p1788
(dp1789
g13
F-200.18685792679412
sba(i__main__
Gene
p1790
(dp1791
g13
F775.06679784542837
sba(i__main__
Gene
p1792
(dp1793
g13
F-47.327516249361992
sba(i__main__
Gene
p1794
(dp1795
g13
F74.37691121480394
sba(i__main__
Gene
p1796
(dp1797
g13
F-76.879677261839589
sba(i__main__
Gene
p1798
(dp1799
g13
F99.121036844166142
sba(i__main__
Gene
p1800
(dp1801
g13
F-49.972971966054743
sba(i__main__
Gene
p1802
(dp1803
g13
F28.304020863670388
sba(i__main__
Gene
p1804
(dp1805
g13
F-2548.9470531452971
sba(i__main__
Gene
p1806
(dp1807
g13
F33198.240199510932
sba(i__main__
Gene
p1808
(dp1809
g13
F-22285.741753692753
sba(i__main__
Gene
p1810
(dp1811
g13
F43071.425793653536
sba(i__main__
Gene
p1812
(dp1813
g13
F-20844.311093649645
sba(i__main__
Gene
p1814
(dp1815
g13
F15477.312873728046
sba(i__main__
Gene
p1816
(dp1817
g13
F-505.43318559777504
sba(i__main__
Gene
p1818
(dp1819
g13
F337.90566752562137
sba(i__main__
Gene
p1820
(dp1821
g13
F-976.52152421048743
sba(i__main__
Gene
p1822
(dp1823
g13
F245.25365019568625
sba(i__main__
Gene
p1824
(dp1825
g13
F-316.2825187213183
sba(i__main__
Gene
p1826
(dp1827
g13
F35.507287763731355
sba(i__main__
Gene
p1828
(dp1829
g13
F-0.83466598147694526
sba(i__main__
Gene
p1830
(dp1831
g13
F98.315275215508962
sba(i__main__
Gene
p1832
(dp1833
g13
F-53.074706191918352
sba(i__main__
Gene
p1834
(dp1835
g13
F11.677868698250304
sba(i__main__
Gene
p1836
(dp1837
g13
F-14.668492072190617
sba(i__main__
Gene
p1838
(dp1839
g13
F52.836479510113755
sba(i__main__
Gene
p1840
(dp1841
g13
F-18136.238610716249
sba(i__main__
Gene
p1842
(dp1843
g13
F4795.4771598384405
sba(i__main__
Gene
p1844
(dp1845
g13
F-2644.6509328477114
sba(i__main__
Gene
p1846
(dp1847
g13
F18704.43419046955
sba(i__main__
Gene
p1848
(dp1849
g13
F-19678.881933182482
sba(i__main__
Gene
p1850
(dp1851
g13
F240.98422882164002
sba(i__main__
Gene
p1852
(dp1853
g13
F-905.91943465920758
sba(i__main__
Gene
p1854
(dp1855
g13
F982.17878798470201
sba(i__main__
Gene
p1856
(dp1857
g13
F-46.445517691073519
sba(i__main__
Gene
p1858
(dp1859
g13
F105.26263643574075
sba(i__main__
Gene
p1860
(dp1861
g13
F-456.72982955704151
sba(i__main__
Gene
p1862
(dp1863
g13
F425.49702508653985
sba(i__main__
Gene
p1864
(dp1865
g13
F-51.024532973270219
sba(i__main__
Gene
p1866
(dp1867
g13
F90.743073831118664
sba(i__main__
Gene
p1868
(dp1869
g13
F-58.04121268427027
sba(i__main__
Gene
p1870
(dp1871
g13
F89.538916172495817
sba(i__main__
Gene
p1872
(dp1873
g13
F-74.920572108290997
sba(i__main__
Gene
p1874
(dp1875
g13
F36.258263320570215
sba(i__main__
Gene
p1876
(dp1877
g13
F-40819.203987135363
sba(i__main__
Gene
p1878
(dp1879
g13
F18978.364307688276
sba(i__main__
Gene
p1880
(dp1881
g13
F-24870.042908366413
sba(i__main__
Gene
p1882
(dp1883
g13
F47025.825577565571
sba(i__main__
Gene
p1884
(dp1885
g13
F-26700.149492015105
sba(i__main__
Gene
p1886
(dp1887
g13
F34317.249270361011
sba(i__main__
Gene
p1888
(dp1889
g13
F-284.55625564648005
sba(i__main__
Gene
p1890
(dp1891
g13
F143.39024891090889
sba(i__main__
Gene
p1892
(dp1893
g13
F-913.23605383605206
sba(i__main__
Gene
p1894
(dp1895
g13
F600.48254890941325
sba(i__main__
Gene
p1896
(dp1897
g13
F-624.2887771299296
sba(i__main__
Gene
p1898
(dp1899
g13
F974.36736675949476
sba(i__main__
Gene
p1900
(dp1901
g13
F-13.437791420088047
sba(i__main__
Gene
p1902
(dp1903
g13
F14.452528490533023
sba(i__main__
Gene
p1904
(dp1905
g13
F-40.036000381128325
sba(i__main__
Gene
p1906
(dp1907
g13
F73.658677445081395
sba(i__main__
Gene
p1908
(dp1909
g13
F-77.227145864785058
sba(i__main__
Gene
p1910
(dp1911
g13
F82.605771321635572
sba(i__main__
Gene
p1912
(dp1913
g13
F-28596.778782747744
sba(i__main__
Gene
p1914
(dp1915
g13
F39638.006462103047
sba(i__main__
Gene
p1916
(dp1917
g13
F-41406.427960021429
sba(i__main__
Gene
p1918
(dp1919
g13
F42664.551986975232
sba(i__main__
Gene
p1920
(dp1921
g13
F-19723.933305627896
sba(i__main__
Gene
p1922
(dp1923
g13
F44549.137364784488
sba(i__main__
Gene
p1924
(dp1925
g13
F-651.07320772208618
sba(i__main__
Gene
p1926
(dp1927
g13
F162.17983939145097
sba(i__main__
Gene
p1928
(dp1929
g13
F-899.72063863875508
sba(i__main__
Gene
p1930
(dp1931
g13
F88.868401108308177
sba(i__main__
Gene
p1932
(dp1933
g13
F-123.76799669384798
sba(i__main__
Gene
p1934
(dp1935
g13
F593.31309456881763
sba(i__main__
Gene
p1936
(dp1937
g13
F-30.088042527265799
sba(i__main__
Gene
p1938
(dp1939
g13
F43.441658461422797
sba(i__main__
Gene
p1940
(dp1941
g13
F-31.955488079257137
sba(i__main__
Gene
p1942
(dp1943
g13
F86.4699948174989
sba(i__main__
Gene
p1944
(dp1945
g13
F-0.18741701272189459
sba(i__main__
Gene
p1946
(dp1947
g13
F82.471225050329224
sba(i__main__
Gene
p1948
(dp1949
g13
F-44665.508447077693
sba(i__main__
Gene
p1950
(dp1951
g13
F32626.993243263045
sba(i__main__
Gene
p1952
(dp1953
g13
F-4447.8527248849641
sba(i__main__
Gene
p1954
(dp1955
g13
F41443.335795512074
sba(i__main__
Gene
p1956
(dp1957
g13
F-40226.595551373175
sba(i__main__
Gene
p1958
(dp1959
g13
F4892.2289572529317
sba(i__main__
Gene
p1960
(dp1961
g13
F-356.60887054307739
sba(i__main__
Gene
p1962
(dp1963
g13
F401.19248942436224
sba(i__main__
Gene
p1964
(dp1965
g13
F-331.78344521412293
sba(i__main__
Gene
p1966
(dp1967
g13
F506.26496110388672
sba(i__main__
Gene
p1968
(dp1969
g13
F-886.0803715227047
sba(i__main__
Gene
p1970
(dp1971
g13
F118.39990822442947
sba(i__main__
Gene
p1972
(dp1973
g13
F-20.019529066077354
sba(i__main__
Gene
p1974
(dp1975
g13
F65.450541638249376
sba(i__main__
Gene
p1976
(dp1977
g13
F-38.927580177730967
sba(i__main__
Gene
p1978
(dp1979
g13
F97.678216853350676
sba(i__main__
Gene
p1980
(dp1981
g13
F-83.901083770529951
sba(i__main__
Gene
p1982
(dp1983
g13
F0.33489004193231198
sba(i__main__
Gene
p1984
(dp1985
g13
F-35690.707429163347
sba(i__main__
Gene
p1986
(dp1987
g13
F38089.714094289215
sba(i__main__
Gene
p1988
(dp1989
g13
F-18884.109912760254
sba(i__main__
Gene
p1990
(dp1991
g13
F26923.109897172631
sba(i__main__
Gene
p1992
(dp1993
g13
F-6016.6273535236178
sba(i__main__
Gene
p1994
(dp1995
g13
F2315.4176231834649
sba(i__main__
Gene
p1996
(dp1997
g13
F-340.28402346984853
sba(i__main__
Gene
p1998
(dp1999
g13
F257.82713038967597
sba(i__main__
Gene
p2000
(dp2001
g13
F-181.74858434273085
sba(i__main__
Gene
p2002
(dp2003
g13
F739.26120154263981
sba(i__main__
Gene
p2004
(dp2005
g13
F-304.25418326031956
sba(i__main__
Gene
p2006
(dp2007
g13
F399.63290956315245
sba(i__main__
Gene
p2008
(dp2009
g13
F-3.7830737255542601
sba(i__main__
Gene
p2010
(dp2011
g13
F88.067912674459848
sba(i__main__
Gene
p2012
(dp2013
g13
F-64.423825474263637
sba(i__main__
Gene
p2014
(dp2015
g13
F98.90731758454811
sba(i__main__
Gene
p2016
(dp2017
g13
F-6.8028929466113794
sba(i__main__
Gene
p2018
(dp2019
g13
F59.170278420852462
sba(i__main__
Gene
p2020
(dp2021
g13
F-3107.752692189817
sba(i__main__
Gene
p2022
(dp2023
g13
F11639.266522253443
sba(i__main__
Gene
p2024
(dp2025
g13
F-35879.268724966329
sba(i__main__
Gene
p2026
(dp2027
g13
F29796.882267610239
sba(i__main__
Gene
p2028
(dp2029
g13
F-37562.25566043421
sba(i__main__
Gene
p2030
(dp2031
g13
F40057.06306754682
sba(i__main__
Gene
p2032
(dp2033
g13
F-507.41812289140108
sba(i__main__
Gene
p2034
(dp2035
g13
F393.49371995687875
sba(i__main__
Gene
p2036
(dp2037
g13
F-212.06964681570344
sba(i__main__
Gene
p2038
(dp2039
g13
F125.06957996167256
sba(i__main__
Gene
p2040
(dp2041
g13
F-845.4707977498573
sba(i__main__
Gene
p2042
(dp2043
g13
F783.48277388301926
sba(i__main__
Gene
p2044
(dp2045
g13
F-84.081539111365913
sba(i__main__
Gene
p2046
(dp2047
g13
F97.752347584880297
sba(i__main__
Gene
p2048
(dp2049
g13
F-30.685781269821234
sba(i__main__
Gene
p2050
(dp2051
g13
F68.150606881554054
sba(i__main__
Gene
p2052
(dp2053
g13
F-74.266816757775246
sba(i__main__
Gene
p2054
(dp2055
g13
F36.512502671971205
sba(i__main__
Gene
p2056
(dp2057
g13
F-6187.264785659223
sba(i__main__
Gene
p2058
(dp2059
g13
F23242.731006288741
sba(i__main__
Gene
p2060
(dp2061
g13
F-23418.388045701377
sba(i__main__
Gene
p2062
(dp2063
g13
F47040.914025451479
sba(i__main__
Gene
p2064
(dp2065
g13
F-41293.836406187555
sba(i__main__
Gene
p2066
(dp2067
g13
F4476.5527167977471
sba(i__main__
Gene
p2068
(dp2069
g13
F-10.33818255112817
sba(i__main__
Gene
p2070
(dp2071
g13
F639.13419410920983
sba(i__main__
Gene
p2072
(dp2073
g13
F-905.74627576195553
sba(i__main__
Gene
p2074
(dp2075
g13
F45.639721606995366
sba(i__main__
Gene
p2076
(dp2077
g13
F-890.64273744363936
sba(i__main__
Gene
p2078
(dp2079
g13
F142.82197290846776
sba(i__main__
Gene
p2080
(dp2081
g13
F-77.727925226096104
sba(i__main__
Gene
p2082
(dp2083
g13
F68.085873065737303
sba(i__main__
Gene
p2084
(dp2085
g13
F-98.430018120321222
sba(i__main__
Gene
p2086
(dp2087
g13
F76.098033267012624
sba(i__main__
Gene
p2088
(dp2089
g13
F-32.570193043045307
sba(i__main__
Gene
p2090
(dp2091
g13
F21.758659680369153
sba(i__main__
Gene
p2092
(dp2093
g13
F-27539.601998237435
sba(i__main__
Gene
p2094
(dp2095
g13
F20651.9908167494
sba(i__main__
Gene
p2096
(dp2097
g13
F-2613.247171094401
sba(i__main__
Gene
p2098
(dp2099
g13
F3102.1612112271805
sba(i__main__
Gene
p2100
(dp2101
g13
F-37219.056434671831
sba(i__main__
Gene
p2102
(dp2103
g13
F1546.4742857765327
sba(i__main__
Gene
p2104
(dp2105
g13
F-806.56098352707636
sba(i__main__
Gene
p2106
(dp2107
g13
F984.11886514173602
sba(i__main__
Gene
p2108
(dp2109
g13
F-860.56492400881427
sba(i__main__
Gene
p2110
(dp2111
g13
F713.56095921134261
sba(i__main__
Gene
p2112
(dp2113
g13
F-274.41743573073234
sba(i__main__
Gene
p2114
(dp2115
g13
F715.23579706773637
sba(i__main__
Gene
p2116
(dp2117
g13
F-23.445426046985915
sba(i__main__
Gene
p2118
(dp2119
g13
F14.422363237304625
sba(i__main__
Gene
p2120
(dp2121
g13
F-86.091862886339044
sba(i__main__
Gene
p2122
(dp2123
g13
F55.58818140482871
sba(i__main__
Gene
p2124
(dp2125
g13
F-17.347379686581149
sba(i__main__
Gene
p2126
(dp2127
g13
F75.880443576893285
sba(i__main__
Gene
p2128
(dp2129
g13
F-47913.863139355468
sba(i__main__
Gene
p2130
(dp2131
g13
F28889.28693150853
sba(i__main__
Gene
p2132
(dp2133
g13
F-21634.735944053718
sba(i__main__
Gene
p2134
(dp2135
g13
F25967.494748159268
sba(i__main__
Gene
p2136
(dp2137
g13
F-40526.901134727981
sba(i__main__
Gene
p2138
(dp2139
g13
F19950.049054720759
sba(i__main__
Gene
p2140
(dp2141
g13
F-471.15507823791984
sba(i__main__
Gene
p2142
(dp2143
g13
F927.51222301577354
sba(i__main__
Gene
p2144
(dp2145
g13
F-867.56437921609609
sba(i__main__
Gene
p2146
(dp2147
g13
F297.90711554750237
sba(i__main__
Gene
p2148
(dp2149
g13
F-251.25008289582104
sba(i__main__
Gene
p2150
(dp2151
g13
F823.625409176326
sba(i__main__
Gene
p2152
(dp2153
g13
F-21.992254625388398
sba(i__main__
Gene
p2154
(dp2155
g13
F52.708077641520177
sba(i__main__
Gene
p2156
(dp2157
g13
F-10.849576834197435
sba(i__main__
Gene
p2158
(dp2159
g13
F34.580591439397445
sba(i__main__
Gene
p2160
(dp2161
g13
F-39.232905419752242
sba(i__main__
Gene
p2162
(dp2163
g13
F92.941486391672271
sba(i__main__
Gene
p2164
(dp2165
g13
F-25431.411255408395
sba(i__main__
Gene
p2166
(dp2167
g13
F15785.122186634884
sba(i__main__
Gene
p2168
(dp2169
g13
F-13339.423510723958
sba(i__main__
Gene
p2170
(dp2171
g13
F8223.871530686798
sba(i__main__
Gene
p2172
(dp2173
g13
F-14783.271365000539
sba(i__main__
Gene
p2174
(dp2175
g13
F17028.127124067592
sba(i__main__
Gene
p2176
(dp2177
g13
F-50.224143894342433
sba(i__main__
Gene
p2178
(dp2179
g13
F197.4600331573555
sba(i__main__
Gene
p2180
(dp2181
g13
F-131.23128065149444
sba(i__main__
Gene
p2182
(dp2183
g13
F665.77913458775561
sba(i__main__
Gene
p2184
(dp2185
g13
F-978.74627480321988
sba(i__main__
Gene
p2186
(dp2187
g13
F118.42889143352697
sba(i__main__
Gene
p2188
(dp2189
g13
F-65.757769531225392
sba(i__main__
Gene
p2190
(dp2191
g13
F70.955504048580181
sba(i__main__
Gene
p2192
(dp2193
g13
F-84.768999577527865
sba(i__main__
Gene
p2194
(dp2195
g13
F20.494873411243031
sba(i__main__
Gene
p2196
(dp2197
g13
F-87.845672871835006
sba(i__main__
Gene
p2198
(dp2199
g13
F9.7974858556484801
sbatRp2200
(dp2201
g446
g7
(g447
g448
NtRp2202
(dp2203
g451
(F497.60000000000002
tp2204
sbsbag7
(g8
g9
(lp2205
(i__main__
Gene
p2206
(dp2207
g13
F-5720.6501268237844
sba(i__main__
Gene
p2208
(dp2209
g13
F17019.852564437471
sba(i__main__
Gene
p2210
(dp2211
g13
F-9938.2124451003328
sba(i__main__
Gene
p2212
(dp2213
g13
F19606.762964526635
sba(i__main__
Gene
p2214
(dp2215
g13
F-47923.289824208834
sba(i__main__
Gene
p2216
(dp2217
g13
F40717.483011531251
sba(i__main__
Gene
p2218
(dp2219
g13
F-483.33657960329492
sba(i__main__
Gene
p2220
(dp2221
g13
F735.20139574317227
sba(i__main__
Gene
p2222
(dp2223
g13
F-638.63451044062106
sba(i__main__
Gene
p2224
(dp2225
g13
F290.17374289742816
sba(i__main__
Gene
p2226
(dp2227
g13
F-320.67505134387113
sba(i__main__
Gene
p2228
(dp2229
g13
F826.32079668626795
sba(i__main__
Gene
p2230
(dp2231
g13
F-74.134624878704074
sba(i__main__
Gene
p2232
(dp2233
g13
F76.943156773768422
sba(i__main__
Gene
p2234
(dp2235
g13
F-21.267392001171828
sba(i__main__
Gene
p2236
(dp2237
g13
F17.29399534519581
sba(i__main__
Gene
p2238
(dp2239
g13
F-7.6464361140713208
sba(i__main__
Gene
p2240
(dp2241
g13
F21.60927547611503
sba(i__main__
Gene
p2242
(dp2243
g13
F-415.98068988949672
sba(i__main__
Gene
p2244
(dp2245
g13
F20589.964106982028
sba(i__main__
Gene
p2246
(dp2247
g13
F-42219.330725237109
sba(i__main__
Gene
p2248
(dp2249
g13
F16855.676792589937
sba(i__main__
Gene
p2250
(dp2251
g13
F-809.08781835393893
sba(i__main__
Gene
p2252
(dp2253
g13
F40814.17329718019
sba(i__main__
Gene
p2254
(dp2255
g13
F-619.43002832117543
sba(i__main__
Gene
p2256
(dp2257
g13
F811.93918539549486
sba(i__main__
Gene
p2258
(dp2259
g13
F-278.3547618744908
sba(i__main__
Gene
p2260
(dp2261
g13
F653.8250122302353
sba(i__main__
Gene
p2262
(dp2263
g13
F-539.75106611003264
sba(i__main__
Gene
p2264
(dp2265
g13
F996.65201321387053
sba(i__main__
Gene
p2266
(dp2267
g13
F-71.542758828426457
sba(i__main__
Gene
p2268
(dp2269
g13
F92.48405628884386
sba(i__main__
Gene
p2270
(dp2271
g13
F-0.616137963384503
sba(i__main__
Gene
p2272
(dp2273
g13
F1.3312921144829071
sba(i__main__
Gene
p2274
(dp2275
g13
F-48.492246033018972
sba(i__main__
Gene
p2276
(dp2277
g13
F56.810951390981757
sba(i__main__
Gene
p2278
(dp2279
g13
F-32192.839686404586
sba(i__main__
Gene
p2280
(dp2281
g13
F19395.721365589547
sba(i__main__
Gene
p2282
(dp2283
g13
F-45288.518759193583
sba(i__main__
Gene
p2284
(dp2285
g13
F19128.209377043444
sba(i__main__
Gene
p2286
(dp2287
g13
F-12770.058357392329
sba(i__main__
Gene
p2288
(dp2289
g13
F37557.02001288873
sba(i__main__
Gene
p2290
(dp2291
g13
F-968.97181295842211
sba(i__main__
Gene
p2292
(dp2293
g13
F978.61921215795962
sba(i__main__
Gene
p2294
(dp2295
g13
F-63.374325655788084
sba(i__main__
Gene
p2296
(dp2297
g13
F764.15062220102004
sba(i__main__
Gene
p2298
(dp2299
g13
F-810.51958224128293
sba(i__main__
Gene
p2300
(dp2301
g13
F748.16232654420207
sba(i__main__
Gene
p2302
(dp2303
g13
F-97.107193339260064
sba(i__main__
Gene
p2304
(dp2305
g13
F30.118866638000853
sba(i__main__
Gene
p2306
(dp2307
g13
F-59.510860902987872
sba(i__main__
Gene
p2308
(dp2309
g13
F43.559938731211155
sba(i__main__
Gene
p2310
(dp2311
g13
F-24.08116655303904
sba(i__main__
Gene
p2312
(dp2313
g13
F88.802623663452721
sba(i__main__
Gene
p2314
(dp2315
g13
F-37310.484333157947
sba(i__main__
Gene
p2316
(dp2317
g13
F44923.091607480463
sba(i__main__
Gene
p2318
(dp2319
g13
F-3566.9689310942777
sba(i__main__
Gene
p2320
(dp2321
g13
F14808.901216768674
sba(i__main__
Gene
p2322
(dp2323
g13
F-5341.6131956854078
sba(i__main__
Gene
p2324
(dp2325
g13
F8838.2736218179143
sba(i__main__
Gene
p2326
(dp2327
g13
F-194.06664423840323
sba(i__main__
Gene
p2328
(dp2329
g13
F637.36797872186537
sba(i__main__
Gene
p2330
(dp2331
g13
F-27.011216740262626
sba(i__main__
Gene
p2332
(dp2333
g13
F340.877163465058
sba(i__main__
Gene
p2334
(dp2335
g13
F-221.35520899378571
sba(i__main__
Gene
p2336
(dp2337
g13
F582.51405007414689
sba(i__main__
Gene
p2338
(dp2339
g13
F-83.873043178721701
sba(i__main__
Gene
p2340
(dp2341
g13
F38.669589402044004
sba(i__main__
Gene
p2342
(dp2343
g13
F-27.942423278596465
sba(i__main__
Gene
p2344
(dp2345
g13
F1.5198683454930695
sba(i__main__
Gene
p2346
(dp2347
g13
F-6.2424851764466354
sba(i__main__
Gene
p2348
(dp2349
g13
F55.535507512216697
sba(i__main__
Gene
p2350
(dp2351
g13
F-4813.0628908342842
sba(i__main__
Gene
p2352
(dp2353
g13
F3933.3674313667721
sba(i__main__
Gene
p2354
(dp2355
g13
F-32592.224164530904
sba(i__main__
Gene
p2356
(dp2357
g13
F35896.740569441536
sba(i__main__
Gene
p2358
(dp2359
g13
F-17401.513391662738
sba(i__main__
Gene
p2360
(dp2361
g13
F13258.784546175038
sba(i__main__
Gene
p2362
(dp2363
g13
F-279.59114213917496
sba(i__main__
Gene
p2364
(dp2365
g13
F165.48469758419881
sba(i__main__
Gene
p2366
(dp2367
g13
F-869.68530480807385
sba(i__main__
Gene
p2368
(dp2369
g13
F381.60032077291282
sba(i__main__
Gene
p2370
(dp2371
g13
F-459.49655346506927
sba(i__main__
Gene
p2372
(dp2373
g13
F37.430170209029171
sba(i__main__
Gene
p2374
(dp2375
g13
F-93.779946027242516
sba(i__main__
Gene
p2376
(dp2377
g13
F10.902928642339738
sba(i__main__
Gene
p2378
(dp2379
g13
F-77.14408484493616
sba(i__main__
Gene
p2380
(dp2381
g13
F15.53002251492992
sba(i__main__
Gene
p2382
(dp2383
g13
F-7.7246253066214621
sba(i__main__
Gene
p2384
(dp2385
g13
F65.31633840410845
sba(i__main__
Gene
p2386
(dp2387
g13
F-43950.861220095881
sba(i__main__
Gene
p2388
(dp2389
g13
F12199.86505409593
sba(i__main__
Gene
p2390
(dp2391
g13
F-38152.183803991094
sba(i__main__
Gene
p2392
(dp2393
g13
F4738.2008829982233
sba(i__main__
Gene
p2394
(dp2395
g13
F-2068.9950606941129
sba(i__main__
Gene
p2396
(dp2397
g13
F21646.429560329147
sba(i__main__
Gene
p2398
(dp2399
g13
F-390.71974734324283
sba(i__main__
Gene
p2400
(dp2401
g13
F477.19194979157277
sba(i__main__
Gene
p2402
(dp2403
g13
F-394.80966339760948
sba(i__main__
Gene
p2404
(dp2405
g13
F655.95138555261678
sba(i__main__
Gene
p2406
(dp2407
g13
F-290.98042342243343
sba(i__main__
Gene
p2408
(dp2409
g13
F21.293885469433448
sba(i__main__
Gene
p2410
(dp2411
g13
F-15.566617491903116
sba(i__main__
Gene
p2412
(dp2413
g13
F97.999421122473535
sba(i__main__
Gene
p2414
(dp2415
g13
F-98.423532545528474
sba(i__main__
Gene
p2416
(dp2417
g13
F18.259054040548349
sba(i__main__
Gene
p2418
(dp2419
g13
F-69.199664354700744
sba(i__main__
Gene
p2420
(dp2421
g13
F71.5983171528041
sba(i__main__
Gene
p2422
(dp2423
g13
F-6364.2767610764276
sba(i__main__
Gene
p2424
(dp2425
g13
F29896.143118078086
sba(i__main__
Gene
p2426
(dp2427
g13
F-32589.007469787273
sba(i__main__
Gene
p2428
(dp2429
g13
F10730.919611418358
sba(i__main__
Gene
p2430
(dp2431
g13
F-43366.808761106477
sba(i__main__
Gene
p2432
(dp2433
g13
F23839.937207331044
sba(i__main__
Gene
p2434
(dp2435
g13
F-997.03733385281043
sba(i__main__
Gene
p2436
(dp2437
g13
F381.55656687532303
sba(i__main__
Gene
p2438
(dp2439
g13
F-733.09501659375815
sba(i__main__
Gene
p2440
(dp2441
g13
F253.57095385603279
sba(i__main__
Gene
p2442
(dp2443
g13
F-445.58825834334232
sba(i__main__
Gene
p2444
(dp2445
g13
F25.459245738784997
sba(i__main__
Gene
p2446
(dp2447
g13
F-77.061830796766571
sba(i__main__
Gene
p2448
(dp2449
g13
F44.291336950003746
sba(i__main__
Gene
p2450
(dp2451
g13
F-9.0197647480634799
sba(i__main__
Gene
p2452
(dp2453
g13
F84.381863464870193
sba(i__main__
Gene
p2454
(dp2455
g13
F-45.663779370948532
sba(i__main__
Gene
p2456
(dp2457
g13
F4.8009434965763482
sba(i__main__
Gene
p2458
(dp2459
g13
F-666.33948256465374
sba(i__main__
Gene
p2460
(dp2461
g13
F14252.025666587171
sba(i__main__
Gene
p2462
(dp2463
g13
F-21037.514511110989
sba(i__main__
Gene
p2464
(dp2465
g13
F41195.930702694139
sba(i__main__
Gene
p2466
(dp2467
g13
F-26319.113323448226
sba(i__main__
Gene
p2468
(dp2469
g13
F28396.960885342254
sba(i__main__
Gene
p2470
(dp2471
g13
F-279.67659539164094
sba(i__main__
Gene
p2472
(dp2473
g13
F492.06319333216464
sba(i__main__
Gene
p2474
(dp2475
g13
F-630.29150552517899
sba(i__main__
Gene
p2476
(dp2477
g13
F100.94921683361679
sba(i__main__
Gene
p2478
(dp2479
g13
F-926.89900513733994
sba(i__main__
Gene
p2480
(dp2481
g13
F604.69161581468074
sba(i__main__
Gene
p2482
(dp2483
g13
F-53.976341904886226
sba(i__main__
Gene
p2484
(dp2485
g13
F11.026393262087087
sba(i__main__
Gene
p2486
(dp2487
g13
F-33.139588718521168
sba(i__main__
Gene
p2488
(dp2489
g13
F38.800389501840456
sba(i__main__
Gene
p2490
(dp2491
g13
F-78.171701814883875
sba(i__main__
Gene
p2492
(dp2493
g13
F65.839303214238427
sba(i__main__
Gene
p2494
(dp2495
g13
F-41215.715085499498
sba(i__main__
Gene
p2496
(dp2497
g13
F17677.275404377648
sba(i__main__
Gene
p2498
(dp2499
g13
F-374.65936015142506
sba(i__main__
Gene
p2500
(dp2501
g13
F14488.022454325195
sba(i__main__
Gene
p2502
(dp2503
g13
F-12277.9933060736
sba(i__main__
Gene
p2504
(dp2505
g13
F39053.030216134357
sba(i__main__
Gene
p2506
(dp2507
g13
F-898.76885930935066
sba(i__main__
Gene
p2508
(dp2509
g13
F812.17672587801553
sba(i__main__
Gene
p2510
(dp2511
g13
F-658.8610416113637
sba(i__main__
Gene
p2512
(dp2513
g13
F509.48252785447647
sba(i__main__
Gene
p2514
(dp2515
g13
F-812.1032524390215
sba(i__main__
Gene
p2516
(dp2517
g13
F95.280432565159828
sba(i__main__
Gene
p2518
(dp2519
g13
F-30.062140561234742
sba(i__main__
Gene
p2520
(dp2521
g13
F16.119630999741819
sba(i__main__
Gene
p2522
(dp2523
g13
F-2.756993322669814
sba(i__main__
Gene
p2524
(dp2525
g13
F78.799465834201555
sba(i__main__
Gene
p2526
(dp2527
g13
F-72.277827425131363
sba(i__main__
Gene
p2528
(dp2529
g13
F58.309701449164862
sba(i__main__
Gene
p2530
(dp2531
g13
F-26984.954725982661
sba(i__main__
Gene
p2532
(dp2533
g13
F32176.497212344013
sba(i__main__
Gene
p2534
(dp2535
g13
F-22686.097783811627
sba(i__main__
Gene
p2536
(dp2537
g13
F29745.056386534929
sba(i__main__
Gene
p2538
(dp2539
g13
F-33057.135315581254
sba(i__main__
Gene
p2540
(dp2541
g13
F448.82089038411226
sba(i__main__
Gene
p2542
(dp2543
g13
F-89.139976052672978
sba(i__main__
Gene
p2544
(dp2545
g13
F339.73926878145897
sba(i__main__
Gene
p2546
(dp2547
g13
F-65.914636168901325
sba(i__main__
Gene
p2548
(dp2549
g13
F816.42446192651562
sba(i__main__
Gene
p2550
(dp2551
g13
F-233.0875577211948
sba(i__main__
Gene
p2552
(dp2553
g13
F69.5785745927775
sba(i__main__
Gene
p2554
(dp2555
g13
F-55.887942353184094
sba(i__main__
Gene
p2556
(dp2557
g13
F88.908037412023319
sba(i__main__
Gene
p2558
(dp2559
g13
F-39.420688981160112
sba(i__main__
Gene
p2560
(dp2561
g13
F13.548533593815304
sba(i__main__
Gene
p2562
(dp2563
g13
F-52.045331590641084
sba(i__main__
Gene
p2564
(dp2565
g13
F0.89928198070424736
sba(i__main__
Gene
p2566
(dp2567
g13
F-17297.130987745863
sba(i__main__
Gene
p2568
(dp2569
g13
F46954.930650833317
sba(i__main__
Gene
p2570
(dp2571
g13
F-11574.967338693699
sba(i__main__
Gene
p2572
(dp2573
g13
F34586.324059467304
sba(i__main__
Gene
p2574
(dp2575
g13
F-21891.791906289302
sba(i__main__
Gene
p2576
(dp2577
g13
F9409.7944825683117
sba(i__main__
Gene
p2578
(dp2579
g13
F-662.757322362266
sba(i__main__
Gene
p2580
(dp2581
g13
F605.41763734988876
sba(i__main__
Gene
p2582
(dp2583
g13
F-335.745461315836
sba(i__main__
Gene
p2584
(dp2585
g13
F204.39915930049278
sba(i__main__
Gene
p2586
(dp2587
g13
F-297.49876094428362
sba(i__main__
Gene
p2588
(dp2589
g13
F240.54590471716685
sba(i__main__
Gene
p2590
(dp2591
g13
F-33.231740569099415
sba(i__main__
Gene
p2592
(dp2593
g13
F41.90498518231631
sba(i__main__
Gene
p2594
(dp2595
g13
F-42.643351258413063
sba(i__main__
Gene
p2596
(dp2597
g13
F11.274616861101993
sba(i__main__
Gene
p2598
(dp2599
g13
F-48.171482611705841
sba(i__main__
Gene
p2600
(dp2601
g13
F10.369780076399138
sba(i__main__
Gene
p2602
(dp2603
g13
F-3727.1175486088323
sba(i__main__
Gene
p2604
(dp2605
g13
F25112.016877231224
sba(i__main__
Gene
p2606
(dp2607
g13
F-18008.774319927532
sba(i__main__
Gene
p2608
(dp2609
g13
F35992.453963708787
sba(i__main__
Gene
p2610
(dp2611
g13
F-42775.77046784362
sba(i__main__
Gene
p2612
(dp2613
g13
F92.179272466088833
sba(i__main__
Gene
p2614
(dp2615
g13
F-377.16900711315736
sba(i__main__
Gene
p2616
(dp2617
g13
F681.50451131903083
sba(i__main__
Gene
p2618
(dp2619
g13
F-493.59810139239391
sba(i__main__
Gene
p2620
(dp2621
g13
F839.76416899571893
sba(i__main__
Gene
p2622
(dp2623
g13
F-965.11149476368246
sba(i__main__
Gene
p2624
(dp2625
g13
F357.82546273222204
sba(i__main__
Gene
p2626
(dp2627
g13
F-59.862066059365496
sba(i__main__
Gene
p2628
(dp2629
g13
F84.715644278798038
sba(i__main__
Gene
p2630
(dp2631
g13
F-44.40657170309327
sba(i__main__
Gene
p2632
(dp2633
g13
F52.844878323953701
sba(i__main__
Gene
p2634
(dp2635
g13
F-71.171143041613533
sba(i__main__
Gene
p2636
(dp2637
g13
F71.544077757921215
sbatRp2638
(dp2639
g446
g7
(g447
g448
NtRp2640
(dp2641
g451
(F492.60000000000002
tp2642
sbsbag7
(g8
g9
(lp2643
(i__main__
Gene
p2644
(dp2645
g13
F-41128.608322179556
sba(i__main__
Gene
p2646
(dp2647
g13
F926.78436233551622
sba(i__main__
Gene
p2648
(dp2649
g13
F-48067.572254858169
sba(i__main__
Gene
p2650
(dp2651
g13
F47193.489087910144
sba(i__main__
Gene
p2652
(dp2653
g13
F-17687.169543030992
sba(i__main__
Gene
p2654
(dp2655
g13
F8813.6894941903665
sba(i__main__
Gene
p2656
(dp2657
g13
F-962.33970074591946
sba(i__main__
Gene
p2658
(dp2659
g13
F623.90579766044618
sba(i__main__
Gene
p2660
(dp2661
g13
F-119.70242867427999
sba(i__main__
Gene
p2662
(dp2663
g13
F439.5110643181157
sba(i__main__
Gene
p2664
(dp2665
g13
F-91.630002329501508
sba(i__main__
Gene
p2666
(dp2667
g13
F558.52474112852224
sba(i__main__
Gene
p2668
(dp2669
g13
F-15.487712311783099
sba(i__main__
Gene
p2670
(dp2671
g13
F17.789713739494228
sba(i__main__
Gene
p2672
(dp2673
g13
F-55.976471408695808
sba(i__main__
Gene
p2674
(dp2675
g13
F56.106044026938683
sba(i__main__
Gene
p2676
(dp2677
g13
F-86.677012735111077
sba(i__main__
Gene
p2678
(dp2679
g13
F3.0572387373693166
sba(i__main__
Gene
p2680
(dp2681
g13
F-9906.0137630475874
sba(i__main__
Gene
p2682
(dp2683
g13
F22775.561320308891
sba(i__main__
Gene
p2684
(dp2685
g13
F-40768.198763282009
sba(i__main__
Gene
p2686
(dp2687
g13
F2030.8661641097101
sba(i__main__
Gene
p2688
(dp2689
g13
F-6556.7514312390485
sba(i__main__
Gene
p2690
(dp2691
g13
F29959.66057939655
sba(i__main__
Gene
p2692
(dp2693
g13
F-930.74001952331639
sba(i__main__
Gene
p2694
(dp2695
g13
F508.7521171110846
sba(i__main__
Gene
p2696
(dp2697
g13
F-178.77824626632525
sba(i__main__
Gene
p2698
(dp2699
g13
F765.00198971409782
sba(i__main__
Gene
p2700
(dp2701
g13
F-570.67793109940817
sba(i__main__
Gene
p2702
(dp2703
g13
F914.33801823301314
sba(i__main__
Gene
p2704
(dp2705
g13
F-20.620232361794351
sba(i__main__
Gene
p2706
(dp2707
g13
F76.788463934669821
sba(i__main__
Gene
p2708
(dp2709
g13
F-31.100783126902527
sba(i__main__
Gene
p2710
(dp2711
g13
F55.564536899004366
sba(i__main__
Gene
p2712
(dp2713
g13
F-16.251473220028714
sba(i__main__
Gene
p2714
(dp2715
g13
F93.164926885187498
sba(i__main__
Gene
p2716
(dp2717
g13
F-3684.2866230073778
sba(i__main__
Gene
p2718
(dp2719
g13
F4487.7208326665304
sba(i__main__
Gene
p2720
(dp2721
g13
F-19319.04693490217
sba(i__main__
Gene
p2722
(dp2723
g13
F5643.9872957982525
sba(i__main__
Gene
p2724
(dp2725
g13
F-45773.275763092919
sba(i__main__
Gene
p2726
(dp2727
g13
F36488.86033810494
sba(i__main__
Gene
p2728
(dp2729
g13
F-762.61346971618786
sba(i__main__
Gene
p2730
(dp2731
g13
F757.71407670505994
sba(i__main__
Gene
p2732
(dp2733
g13
F-451.01917854925318
sba(i__main__
Gene
p2734
(dp2735
g13
F682.47879032428546
sba(i__main__
Gene
p2736
(dp2737
g13
F-130.55310699577444
sba(i__main__
Gene
p2738
(dp2739
g13
F425.00066613613029
sba(i__main__
Gene
p2740
(dp2741
g13
F-72.496258847301533
sba(i__main__
Gene
p2742
(dp2743
g13
F36.790102746174469
sba(i__main__
Gene
p2744
(dp2745
g13
F-10.934564483014483
sba(i__main__
Gene
p2746
(dp2747
g13
F17.240329103000651
sba(i__main__
Gene
p2748
(dp2749
g13
F-80.541135184300657
sba(i__main__
Gene
p2750
(dp2751
g13
F73.632251236411093
sba(i__main__
Gene
p2752
(dp2753
g13
F-11586.302228422384
sba(i__main__
Gene
p2754
(dp2755
g13
F8317.1985245398591
sba(i__main__
Gene
p2756
(dp2757
g13
F-13933.252618257502
sba(i__main__
Gene
p2758
(dp2759
g13
F17675.235116003743
sba(i__main__
Gene
p2760
(dp2761
g13
F-23859.07979377274
sba(i__main__
Gene
p2762
(dp2763
g13
F29539.349318271052
sba(i__main__
Gene
p2764
(dp2765
g13
F-443.17832289557896
sba(i__main__
Gene
p2766
(dp2767
g13
F486.86039795635219
sba(i__main__
Gene
p2768
(dp2769
g13
F-810.39114867526825
sba(i__main__
Gene
p2770
(dp2771
g13
F876.23760702625702
sba(i__main__
Gene
p2772
(dp2773
g13
F-865.81219713804239
sba(i__main__
Gene
p2774
(dp2775
g13
F97.121740163347965
sba(i__main__
Gene
p2776
(dp2777
g13
F-65.466977699813555
sba(i__main__
Gene
p2778
(dp2779
g13
F4.8133664301057806
sba(i__main__
Gene
p2780
(dp2781
g13
F-7.5525083449061015
sba(i__main__
Gene
p2782
(dp2783
g13
F86.37021490610212
sba(i__main__
Gene
p2784
(dp2785
g13
F-21.549058769215534
sba(i__main__
Gene
p2786
(dp2787
g13
F61.574172689562268
sba(i__main__
Gene
p2788
(dp2789
g13
F-45020.950906270977
sba(i__main__
Gene
p2790
(dp2791
g13
F30576.22144132981
sba(i__main__
Gene
p2792
(dp2793
g13
F-12517.480787811997
sba(i__main__
Gene
p2794
(dp2795
g13
F12392.216147779172
sba(i__main__
Gene
p2796
(dp2797
g13
F-31270.901838818969
sba(i__main__
Gene
p2798
(dp2799
g13
F31505.67616871823
sba(i__main__
Gene
p2800
(dp2801
g13
F-447.84967030449013
sba(i__main__
Gene
p2802
(dp2803
g13
F29.117959545763906
sba(i__main__
Gene
p2804
(dp2805
g13
F-437.16437381807577
sba(i__main__
Gene
p2806
(dp2807
g13
F622.42681335536736
sba(i__main__
Gene
p2808
(dp2809
g13
F-307.82061135844219
sba(i__main__
Gene
p2810
(dp2811
g13
F610.1383790759769
sba(i__main__
Gene
p2812
(dp2813
g13
F-23.512803465017186
sba(i__main__
Gene
p2814
(dp2815
g13
F70.913886182195967
sba(i__main__
Gene
p2816
(dp2817
g13
F-51.448065413009004
sba(i__main__
Gene
p2818
(dp2819
g13
F12.834751384347687
sba(i__main__
Gene
p2820
(dp2821
g13
F-86.971234627710018
sba(i__main__
Gene
p2822
(dp2823
g13
F4.332908569869609
sba(i__main__
Gene
p2824
(dp2825
g13
F-41001.682208848375
sba(i__main__
Gene
p2826
(dp2827
g13
F14076.993474864365
sba(i__main__
Gene
p2828
(dp2829
g13
F-20840.972370483571
sba(i__main__
Gene
p2830
(dp2831
g13
F4723.6516331159555
sba(i__main__
Gene
p2832
(dp2833
g13
F-26060.661677916316
sba(i__main__
Gene
p2834
(dp2835
g13
F40502.883721463273
sba(i__main__
Gene
p2836
(dp2837
g13
F-860.2579819356929
sba(i__main__
Gene
p2838
(dp2839
g13
F355.43631638987961
sba(i__main__
Gene
p2840
(dp2841
g13
F-460.14775943094003
sba(i__main__
Gene
p2842
(dp2843
g13
F537.81009337916225
sba(i__main__
Gene
p2844
(dp2845
g13
F-775.79449600952591
sba(i__main__
Gene
p2846
(dp2847
g13
F661.80185726092566
sba(i__main__
Gene
p2848
(dp2849
g13
F-39.036365220538826
sba(i__main__
Gene
p2850
(dp2851
g13
F49.550031093564584
sba(i__main__
Gene
p2852
(dp2853
g13
F-6.2384716594284413
sba(i__main__
Gene
p2854
(dp2855
g13
F61.10405055342386
sba(i__main__
Gene
p2856
(dp2857
g13
F-79.943223246121121
sba(i__main__
Gene
p2858
(dp2859
g13
F60.44441557695118
sba(i__main__
Gene
p2860
(dp2861
g13
F-37631.633971252442
sba(i__main__
Gene
p2862
(dp2863
g13
F38938.634742392402
sba(i__main__
Gene
p2864
(dp2865
g13
F-37264.023426342908
sba(i__main__
Gene
p2866
(dp2867
g13
F12785.366806989568
sba(i__main__
Gene
p2868
(dp2869
g13
F-46331.555132992071
sba(i__main__
Gene
p2870
(dp2871
g13
F32566.18164340956
sba(i__main__
Gene
p2872
(dp2873
g13
F-760.97228371198992
sba(i__main__
Gene
p2874
(dp2875
g13
F776.371641522451
sba(i__main__
Gene
p2876
(dp2877
g13
F-582.65507740607302
sba(i__main__
Gene
p2878
(dp2879
g13
F528.29048143677255
sba(i__main__
Gene
p2880
(dp2881
g13
F-408.1178107285715
sba(i__main__
Gene
p2882
(dp2883
g13
F688.61319842606656
sba(i__main__
Gene
p2884
(dp2885
g13
F-98.006034519668404
sba(i__main__
Gene
p2886
(dp2887
g13
F76.766392021005899
sba(i__main__
Gene
p2888
(dp2889
g13
F-95.6255383239981
sba(i__main__
Gene
p2890
(dp2891
g13
F24.855476370619346
sba(i__main__
Gene
p2892
(dp2893
g13
F-78.056713706408658
sba(i__main__
Gene
p2894
(dp2895
g13
F97.355531252131328
sba(i__main__
Gene
p2896
(dp2897
g13
F-17966.199162397814
sba(i__main__
Gene
p2898
(dp2899
g13
F38965.552564856174
sba(i__main__
Gene
p2900
(dp2901
g13
F-22256.850415916851
sba(i__main__
Gene
p2902
(dp2903
g13
F29643.480186287801
sba(i__main__
Gene
p2904
(dp2905
g13
F-44564.254583596987
sba(i__main__
Gene
p2906
(dp2907
g13
F36880.373710078937
sba(i__main__
Gene
p2908
(dp2909
g13
F-383.31371767644828
sba(i__main__
Gene
p2910
(dp2911
g13
F771.90948958346803
sba(i__main__
Gene
p2912
(dp2913
g13
F-288.55557189420404
sba(i__main__
Gene
p2914
(dp2915
g13
F448.81411948298586
sba(i__main__
Gene
p2916
(dp2917
g13
F-406.05858714527471
sba(i__main__
Gene
p2918
(dp2919
g13
F358.93251031349484
sba(i__main__
Gene
p2920
(dp2921
g13
F-39.643715160821294
sba(i__main__
Gene
p2922
(dp2923
g13
F24.717577186256289
sba(i__main__
Gene
p2924
(dp2925
g13
F-53.877484807334987
sba(i__main__
Gene
p2926
(dp2927
g13
F27.551631373575514
sba(i__main__
Gene
p2928
(dp2929
g13
F-10.14786546701076
sba(i__main__
Gene
p2930
(dp2931
g13
F58.067977810412884
sba(i__main__
Gene
p2932
(dp2933
g13
F-12877.545037370306
sba(i__main__
Gene
p2934
(dp2935
g13
F10895.664371270042
sba(i__main__
Gene
p2936
(dp2937
g13
F-34068.010004052499
sba(i__main__
Gene
p2938
(dp2939
g13
F42522.413947927438
sba(i__main__
Gene
p2940
(dp2941
g13
F-23500.905328193836
sba(i__main__
Gene
p2942
(dp2943
g13
F7028.8471499550251
sba(i__main__
Gene
p2944
(dp2945
g13
F-400.68674881971992
sba(i__main__
Gene
p2946
(dp2947
g13
F7.4936839056911619
sba(i__main__
Gene
p2948
(dp2949
g13
F-133.77631312125561
sba(i__main__
Gene
p2950
(dp2951
g13
F529.77801712046221
sba(i__main__
Gene
p2952
(dp2953
g13
F-133.15742340230156
sba(i__main__
Gene
p2954
(dp2955
g13
F882.49492961327871
sba(i__main__
Gene
p2956
(dp2957
g13
F-87.449185618957259
sba(i__main__
Gene
p2958
(dp2959
g13
F19.391280945338252
sba(i__main__
Gene
p2960
(dp2961
g13
F-61.277949885596364
sba(i__main__
Gene
p2962
(dp2963
g13
F72.587776963031118
sba(i__main__
Gene
p2964
(dp2965
g13
F-14.056293263910675
sba(i__main__
Gene
p2966
(dp2967
g13
F54.795488365931064
sba(i__main__
Gene
p2968
(dp2969
g13
F-36077.845326449082
sba(i__main__
Gene
p2970
(dp2971
g13
F4290.9581938074543
sba(i__main__
Gene
p2972
(dp2973
g13
F-32824.817140331441
sba(i__main__
Gene
p2974
(dp2975
g13
F41936.685291732261
sba(i__main__
Gene
p2976
(dp2977
g13
F-33322.038977190015
sba(i__main__
Gene
p2978
(dp2979
g13
F6751.503714434547
sba(i__main__
Gene
p2980
(dp2981
g13
F-367.30627659813138
sba(i__main__
Gene
p2982
(dp2983
g13
F960.63649280662639
sba(i__main__
Gene
p2984
(dp2985
g13
F-244.03847028789357
sba(i__main__
Gene
p2986
(dp2987
g13
F861.0992541500267
sba(i__main__
Gene
p2988
(dp2989
g13
F-141.59753894247569
sba(i__main__
Gene
p2990
(dp2991
g13
F541.30202130533735
sba(i__main__
Gene
p2992
(dp2993
g13
F-71.416815110899137
sba(i__main__
Gene
p2994
(dp2995
g13
F27.796273257917324
sba(i__main__
Gene
p2996
(dp2997
g13
F-98.617553764469804
sba(i__main__
Gene
p2998
(dp2999
g13
F89.981848495071418
sba(i__main__
Gene
p3000
(dp3001
g13
F-43.006085418149496
sba(i__main__
Gene
p3002
(dp3003
g13
F73.867213615323834
sba(i__main__
Gene
p3004
(dp3005
g13
F-44351.347000126276
sba(i__main__
Gene
p3006
(dp3007
g13
F45493.042531074141
sba(i__main__
Gene
p3008
(dp3009
g13
F-39487.161033854456
sba(i__main__
Gene
p3010
(dp3011
g13
F25526.29769946399
sba(i__main__
Gene
p3012
(dp3013
g13
F-17691.020102456743
sba(i__main__
Gene
p3014
(dp3015
g13
F11015.807864232227
sba(i__main__
Gene
p3016
(dp3017
g13
F-722.37810784398368
sba(i__main__
Gene
p3018
(dp3019
g13
F912.04301376874969
sba(i__main__
Gene
p3020
(dp3021
g13
F-751.43988447592903
sba(i__main__
Gene
p3022
(dp3023
g13
F232.01180538484988
sba(i__main__
Gene
p3024
(dp3025
g13
F-792.96561329586609
sba(i__main__
Gene
p3026
(dp3027
g13
F485.3443178998026
sba(i__main__
Gene
p3028
(dp3029
g13
F-21.323780510682951
sba(i__main__
Gene
p3030
(dp3031
g13
F9.752079558711312
sba(i__main__
Gene
p3032
(dp3033
g13
F-53.039355943238206
sba(i__main__
Gene
p3034
(dp3035
g13
F27.227172561105505
sba(i__main__
Gene
p3036
(dp3037
g13
F-74.50413250918578
sba(i__main__
Gene
p3038
(dp3039
g13
F20.329301594935288
sba(i__main__
Gene
p3040
(dp3041
g13
F-39985.697697937569
sba(i__main__
Gene
p3042
(dp3043
g13
F25114.43895515865
sba(i__main__
Gene
p3044
(dp3045
g13
F-30832.098071268712
sba(i__main__
Gene
p3046
(dp3047
g13
F30126.348988514157
sba(i__main__
Gene
p3048
(dp3049
g13
F-18662.282576839709
sba(i__main__
Gene
p3050
(dp3051
g13
F32087.545550777264
sba(i__main__
Gene
p3052
(dp3053
g13
F-244.83502326822133
sba(i__main__
Gene
p3054
(dp3055
g13
F230.04070423633704
sba(i__main__
Gene
p3056
(dp3057
g13
F-394.80523622429155
sba(i__main__
Gene
p3058
(dp3059
g13
F89.057705896783304
sba(i__main__
Gene
p3060
(dp3061
g13
F-16.371396899496858
sba(i__main__
Gene
p3062
(dp3063
g13
F943.24283682016539
sba(i__main__
Gene
p3064
(dp3065
g13
F-51.978075552915804
sba(i__main__
Gene
p3066
(dp3067
g13
F40.870388741935606
sba(i__main__
Gene
p3068
(dp3069
g13
F-91.486597962565739
sba(i__main__
Gene
p3070
(dp3071
g13
F63.090622249341301
sba(i__main__
Gene
p3072
(dp3073
g13
F-6.6505246410566485
sba(i__main__
Gene
p3074
(dp3075
g13
F78.32051776077445
sbatRp3076
(dp3077
g446
g7
(g447
g448
NtRp3078
(dp3079
g451
(F490.80000000000001
tp3080
sbsbag7
(g8
g9
(lp3081
(i__main__
Gene
p3082
(dp3083
g13
F-16182.211740001618
sba(i__main__
Gene
p3084
(dp3085
g13
F2696.9260644478431
sba(i__main__
Gene
p3086
(dp3087
g13
F-47962.980864605866
sba(i__main__
Gene
p3088
(dp3089
g13
F44366.851658805746
sba(i__main__
Gene
p3090
(dp3091
g13
F-44315.282731579078
sba(i__main__
Gene
p3092
(dp3093
g13
F3750.6523488569628
sba(i__main__
Gene
p3094
(dp3095
g13
F-623.82241581340986
sba(i__main__
Gene
p3096
(dp3097
g13
F92.810968211809339
sba(i__main__
Gene
p3098
(dp3099
g13
F-959.81294258708715
sba(i__main__
Gene
p3100
(dp3101
g13
F643.45666415727123
sba(i__main__
Gene
p3102
(dp3103
g13
F-139.75973788310955
sba(i__main__
Gene
p3104
(dp3105
g13
F392.55747107635688
sba(i__main__
Gene
p3106
(dp3107
g13
F-18.910686801244779
sba(i__main__
Gene
p3108
(dp3109
g13
F75.80895481925144
sba(i__main__
Gene
p3110
(dp3111
g13
F-12.891674816897989
sba(i__main__
Gene
p3112
(dp3113
g13
F31.340596565162471
sba(i__main__
Gene
p3114
(dp3115
g13
F-48.158244284121579
sba(i__main__
Gene
p3116
(dp3117
g13
F38.678452522962893
sba(i__main__
Gene
p3118
(dp3119
g13
F-28483.926443148302
sba(i__main__
Gene
p3120
(dp3121
g13
F5056.8757648867331
sba(i__main__
Gene
p3122
(dp3123
g13
F-46425.837403402365
sba(i__main__
Gene
p3124
(dp3125
g13
F19540.905766136624
sba(i__main__
Gene
p3126
(dp3127
g13
F-8217.9163950164511
sba(i__main__
Gene
p3128
(dp3129
g13
F15473.319821206509
sba(i__main__
Gene
p3130
(dp3131
g13
F-347.19316189328697
sba(i__main__
Gene
p3132
(dp3133
g13
F726.65628401827223
sba(i__main__
Gene
p3134
(dp3135
g13
F-134.15200620946075
sba(i__main__
Gene
p3136
(dp3137
g13
F923.47792419575967
sba(i__main__
Gene
p3138
(dp3139
g13
F-726.4683579142245
sba(i__main__
Gene
p3140
(dp3141
g13
F649.33347914662534
sba(i__main__
Gene
p3142
(dp3143
g13
F-0.87399518989654723
sba(i__main__
Gene
p3144
(dp3145
g13
F84.460813567982413
sba(i__main__
Gene
p3146
(dp3147
g13
F-24.656380609658015
sba(i__main__
Gene
p3148
(dp3149
g13
F29.586002269737165
sba(i__main__
Gene
p3150
(dp3151
g13
F-15.339310343142017
sba(i__main__
Gene
p3152
(dp3153
g13
F56.033316412957376
sba(i__main__
Gene
p3154
(dp3155
g13
F-5652.5737044758062
sba(i__main__
Gene
p3156
(dp3157
g13
F25988.987648412512
sba(i__main__
Gene
p3158
(dp3159
g13
F-9783.020994702907
sba(i__main__
Gene
p3160
(dp3161
g13
F6976.8290877224181
sba(i__main__
Gene
p3162
(dp3163
g13
F-23997.880052240427
sba(i__main__
Gene
p3164
(dp3165
g13
F37946.754638174556
sba(i__main__
Gene
p3166
(dp3167
g13
F-463.09314947881421
sba(i__main__
Gene
p3168
(dp3169
g13
F217.06743986833189
sba(i__main__
Gene
p3170
(dp3171
g13
F-691.47356148348422
sba(i__main__
Gene
p3172
(dp3173
g13
F174.18890300133526
sba(i__main__
Gene
p3174
(dp3175
g13
F-258.66027418659792
sba(i__main__
Gene
p3176
(dp3177
g13
F752.45060871689486
sba(i__main__
Gene
p3178
(dp3179
g13
F-44.457324467468339
sba(i__main__
Gene
p3180
(dp3181
g13
F43.168649891193176
sba(i__main__
Gene
p3182
(dp3183
g13
F-62.018014873044059
sba(i__main__
Gene
p3184
(dp3185
g13
F30.929532530504122
sba(i__main__
Gene
p3186
(dp3187
g13
F-34.760198720373054
sba(i__main__
Gene
p3188
(dp3189
g13
F18.075282232005474
sba(i__main__
Gene
p3190
(dp3191
g13
F-13228.16658048817
sba(i__main__
Gene
p3192
(dp3193
g13
F22206.013137016467
sba(i__main__
Gene
p3194
(dp3195
g13
F-26915.099490389959
sba(i__main__
Gene
p3196
(dp3197
g13
F18021.413408704524
sba(i__main__
Gene
p3198
(dp3199
g13
F-29878.126076373592
sba(i__main__
Gene
p3200
(dp3201
g13
F26097.758562881889
sba(i__main__
Gene
p3202
(dp3203
g13
F-161.26007521910776
sba(i__main__
Gene
p3204
(dp3205
g13
F325.49353675051719
sba(i__main__
Gene
p3206
(dp3207
g13
F-433.79148314168947
sba(i__main__
Gene
p3208
(dp3209
g13
F608.12144578678976
sba(i__main__
Gene
p3210
(dp3211
g13
F-879.8886018616912
sba(i__main__
Gene
p3212
(dp3213
g13
F108.63151851378694
sba(i__main__
Gene
p3214
(dp3215
g13
F-65.111549295890882
sba(i__main__
Gene
p3216
(dp3217
g13
F59.93710971111588
sba(i__main__
Gene
p3218
(dp3219
g13
F-99.680117154544661
sba(i__main__
Gene
p3220
(dp3221
g13
F72.346655302378622
sba(i__main__
Gene
p3222
(dp3223
g13
F-40.408388317903658
sba(i__main__
Gene
p3224
(dp3225
g13
F48.413982883660644
sba(i__main__
Gene
p3226
(dp3227
g13
F-7866.8139597439076
sba(i__main__
Gene
p3228
(dp3229
g13
F28380.587110630997
sba(i__main__
Gene
p3230
(dp3231
g13
F-42575.181004495738
sba(i__main__
Gene
p3232
(dp3233
g13
F4209.1334226224917
sba(i__main__
Gene
p3234
(dp3235
g13
F-27933.083714573102
sba(i__main__
Gene
p3236
(dp3237
g13
F34619.59084081294
sba(i__main__
Gene
p3238
(dp3239
g13
F-583.95384885848523
sba(i__main__
Gene
p3240
(dp3241
g13
F72.866328477731116
sba(i__main__
Gene
p3242
(dp3243
g13
F-277.40695136743216
sba(i__main__
Gene
p3244
(dp3245
g13
F536.61998540450736
sba(i__main__
Gene
p3246
(dp3247
g13
F-507.63441744023265
sba(i__main__
Gene
p3248
(dp3249
g13
F166.10077519782175
sba(i__main__
Gene
p3250
(dp3251
g13
F-8.3703767413544199
sba(i__main__
Gene
p3252
(dp3253
g13
F6.7500123945145818
sba(i__main__
Gene
p3254
(dp3255
g13
F-88.3142231202159
sba(i__main__
Gene
p3256
(dp3257
g13
F90.212806186933037
sba(i__main__
Gene
p3258
(dp3259
g13
F-54.394455800888728
sba(i__main__
Gene
p3260
(dp3261
g13
F37.99803481609154
sba(i__main__
Gene
p3262
(dp3263
g13
F-22897.293203490735
sba(i__main__
Gene
p3264
(dp3265
g13
F32239.789629038438
sba(i__main__
Gene
p3266
(dp3267
g13
F-11583.165669825357
sba(i__main__
Gene
p3268
(dp3269
g13
F42829.294896572013
sba(i__main__
Gene
p3270
(dp3271
g13
F-6735.0297297331053
sba(i__main__
Gene
p3272
(dp3273
g13
F23415.545851740339
sba(i__main__
Gene
p3274
(dp3275
g13
F-327.0979966110973
sba(i__main__
Gene
p3276
(dp3277
g13
F716.0580014561956
sba(i__main__
Gene
p3278
(dp3279
g13
F-707.07898786249689
sba(i__main__
Gene
p3280
(dp3281
g13
F588.54456857075888
sba(i__main__
Gene
p3282
(dp3283
g13
F-305.74029711553919
sba(i__main__
Gene
p3284
(dp3285
g13
F340.50899050324267
sba(i__main__
Gene
p3286
(dp3287
g13
F-92.497861729163006
sba(i__main__
Gene
p3288
(dp3289
g13
F36.163521502121107
sba(i__main__
Gene
p3290
(dp3291
g13
F-59.963721208572743
sba(i__main__
Gene
p3292
(dp3293
g13
F76.548727087604959
sba(i__main__
Gene
p3294
(dp3295
g13
F-68.729456198314736
sba(i__main__
Gene
p3296
(dp3297
g13
F9.0249042380177276
sba(i__main__
Gene
p3298
(dp3299
g13
F-12438.018517789038
sba(i__main__
Gene
p3300
(dp3301
g13
F9508.1888570320043
sba(i__main__
Gene
p3302
(dp3303
g13
F-31121.578951163199
sba(i__main__
Gene
p3304
(dp3305
g13
F17938.836993554334
sba(i__main__
Gene
p3306
(dp3307
g13
F-43994.039784719389
sba(i__main__
Gene
p3308
(dp3309
g13
F1815.4442471052571
sba(i__main__
Gene
p3310
(dp3311
g13
F-624.79626091202192
sba(i__main__
Gene
p3312
(dp3313
g13
F880.32419874051448
sba(i__main__
Gene
p3314
(dp3315
g13
F-544.74123380255492
sba(i__main__
Gene
p3316
(dp3317
g13
F835.80623122810573
sba(i__main__
Gene
p3318
(dp3319
g13
F-973.01974363242743
sba(i__main__
Gene
p3320
(dp3321
g13
F828.85454598173976
sba(i__main__
Gene
p3322
(dp3323
g13
F-10.448511071812561
sba(i__main__
Gene
p3324
(dp3325
g13
F71.053775950426385
sba(i__main__
Gene
p3326
(dp3327
g13
F-28.741037559777453
sba(i__main__
Gene
p3328
(dp3329
g13
F1.1972748951336709
sba(i__main__
Gene
p3330
(dp3331
g13
F-5.5014553496910281
sba(i__main__
Gene
p3332
(dp3333
g13
F16.659346633798521
sba(i__main__
Gene
p3334
(dp3335
g13
F-4985.1276307249864
sba(i__main__
Gene
p3336
(dp3337
g13
F26214.253850742974
sba(i__main__
Gene
p3338
(dp3339
g13
F-38625.692066707161
sba(i__main__
Gene
p3340
(dp3341
g13
F39782.44996577956
sba(i__main__
Gene
p3342
(dp3343
g13
F-10420.670468843186
sba(i__main__
Gene
p3344
(dp3345
g13
F23879.171884314677
sba(i__main__
Gene
p3346
(dp3347
g13
F-296.57926199330404
sba(i__main__
Gene
p3348
(dp3349
g13
F152.17415449146787
sba(i__main__
Gene
p3350
(dp3351
g13
F-282.85458225275966
sba(i__main__
Gene
p3352
(dp3353
g13
F676.05923548428927
sba(i__main__
Gene
p3354
(dp3355
g13
F-215.9245135762452
sba(i__main__
Gene
p3356
(dp3357
g13
F227.31282546238717
sba(i__main__
Gene
p3358
(dp3359
g13
F-24.035893214488553
sba(i__main__
Gene
p3360
(dp3361
g13
F69.793571098970602
sba(i__main__
Gene
p3362
(dp3363
g13
F-0.47640106339819965
sba(i__main__
Gene
p3364
(dp3365
g13
F55.055049048244562
sba(i__main__
Gene
p3366
(dp3367
g13
F-58.420014499318249
sba(i__main__
Gene
p3368
(dp3369
g13
F9.6077135362429562
sba(i__main__
Gene
p3370
(dp3371
g13
F-27561.399437230601
sba(i__main__
Gene
p3372
(dp3373
g13
F2567.9735780116453
sba(i__main__
Gene
p3374
(dp3375
g13
F-11215.22692752842
sba(i__main__
Gene
p3376
(dp3377
g13
F40747.35731155004
sba(i__main__
Gene
p3378
(dp3379
g13
F-662.38359235579264
sba(i__main__
Gene
p3380
(dp3381
g13
F37722.339736191032
sba(i__main__
Gene
p3382
(dp3383
g13
F-417.28055352704541
sba(i__main__
Gene
p3384
(dp3385
g13
F253.98986693307225
sba(i__main__
Gene
p3386
(dp3387
g13
F-863.85286021079412
sba(i__main__
Gene
p3388
(dp3389
g13
F638.28507535226765
sba(i__main__
Gene
p3390
(dp3391
g13
F-64.995575066948049
sba(i__main__
Gene
p3392
(dp3393
g13
F963.00155237790966
sba(i__main__
Gene
p3394
(dp3395
g13
F-78.932746279179838
sba(i__main__
Gene
p3396
(dp3397
g13
F9.2220143377983117
sba(i__main__
Gene
p3398
(dp3399
g13
F-79.747165177767599
sba(i__main__
Gene
p3400
(dp3401
g13
F72.589054753379102
sba(i__main__
Gene
p3402
(dp3403
g13
F-48.186126721564207
sba(i__main__
Gene
p3404
(dp3405
g13
F76.215818950237107
sba(i__main__
Gene
p3406
(dp3407
g13
F-12508.937169929181
sba(i__main__
Gene
p3408
(dp3409
g13
F43338.50461308493
sba(i__main__
Gene
p3410
(dp3411
g13
F-16123.496025669254
sba(i__main__
Gene
p3412
(dp3413
g13
F46504.254673026066
sba(i__main__
Gene
p3414
(dp3415
g13
F-19457.728468539288
sba(i__main__
Gene
p3416
(dp3417
g13
F8187.9029926652074
sba(i__main__
Gene
p3418
(dp3419
g13
F-304.33203130790059
sba(i__main__
Gene
p3420
(dp3421
g13
F885.63946962160583
sba(i__main__
Gene
p3422
(dp3423
g13
F-786.88278058877847
sba(i__main__
Gene
p3424
(dp3425
g13
F688.25856505058039
sba(i__main__
Gene
p3426
(dp3427
g13
F-399.91189684853941
sba(i__main__
Gene
p3428
(dp3429
g13
F380.02618248226105
sba(i__main__
Gene
p3430
(dp3431
g13
F-48.155222836955339
sba(i__main__
Gene
p3432
(dp3433
g13
F53.588632765042753
sba(i__main__
Gene
p3434
(dp3435
g13
F-95.149977506724042
sba(i__main__
Gene
p3436
(dp3437
g13
F83.989319626896517
sba(i__main__
Gene
p3438
(dp3439
g13
F-28.604735653276336
sba(i__main__
Gene
p3440
(dp3441
g13
F72.116593899238509
sba(i__main__
Gene
p3442
(dp3443
g13
F-42866.861275929776
sba(i__main__
Gene
p3444
(dp3445
g13
F1539.7400498072864
sba(i__main__
Gene
p3446
(dp3447
g13
F-5854.4850018119396
sba(i__main__
Gene
p3448
(dp3449
g13
F22986.891073370516
sba(i__main__
Gene
p3450
(dp3451
g13
F-22877.129197093891
sba(i__main__
Gene
p3452
(dp3453
g13
F5176.3758887659078
sba(i__main__
Gene
p3454
(dp3455
g13
F-12.805025629365559
sba(i__main__
Gene
p3456
(dp3457
g13
F905.31601348786251
sba(i__main__
Gene
p3458
(dp3459
g13
F-16.341279554431026
sba(i__main__
Gene
p3460
(dp3461
g13
F147.68831087723444
sba(i__main__
Gene
p3462
(dp3463
g13
F-450.62875265251614
sba(i__main__
Gene
p3464
(dp3465
g13
F256.17948202466476
sba(i__main__
Gene
p3466
(dp3467
g13
F-82.826057637510132
sba(i__main__
Gene
p3468
(dp3469
g13
F29.034191471478231
sba(i__main__
Gene
p3470
(dp3471
g13
F-31.672552297250377
sba(i__main__
Gene
p3472
(dp3473
g13
F96.702679324819684
sba(i__main__
Gene
p3474
(dp3475
g13
F-62.257857926563531
sba(i__main__
Gene
p3476
(dp3477
g13
F7.0705370983506155
sba(i__main__
Gene
p3478
(dp3479
g13
F-11763.411869437412
sba(i__main__
Gene
p3480
(dp3481
g13
F4105.2545768130176
sba(i__main__
Gene
p3482
(dp3483
g13
F-29090.734273493068
sba(i__main__
Gene
p3484
(dp3485
g13
F36614.397259936108
sba(i__main__
Gene
p3486
(dp3487
g13
F-10574.350952976485
sba(i__main__
Gene
p3488
(dp3489
g13
F3715.2928443700648
sba(i__main__
Gene
p3490
(dp3491
g13
F-140.74650200735823
sba(i__main__
Gene
p3492
(dp3493
g13
F790.60278812433262
sba(i__main__
Gene
p3494
(dp3495
g13
F-991.6245573887478
sba(i__main__
Gene
p3496
(dp3497
g13
F463.88562068310233
sba(i__main__
Gene
p3498
(dp3499
g13
F-786.95751993067347
sba(i__main__
Gene
p3500
(dp3501
g13
F590.90884285525783
sba(i__main__
Gene
p3502
(dp3503
g13
F-34.396961425841383
sba(i__main__
Gene
p3504
(dp3505
g13
F43.668586188944559
sba(i__main__
Gene
p3506
(dp3507
g13
F-26.38638431742109
sba(i__main__
Gene
p3508
(dp3509
g13
F45.919193446575882
sba(i__main__
Gene
p3510
(dp3511
g13
F-82.077402582513315
sba(i__main__
Gene
p3512
(dp3513
g13
F39.229984810382724
sbatRp3514
(dp3515
g446
g7
(g447
g448
NtRp3516
(dp3517
g451
(F522.39999999999998
tp3518
sbsbag7
(g8
g9
(lp3519
(i__main__
Gene
p3520
(dp3521
g13
F-13973.336956964209
sba(i__main__
Gene
p3522
(dp3523
g13
F14457.14141951561
sba(i__main__
Gene
p3524
(dp3525
g13
F-44191.69240280013
sba(i__main__
Gene
p3526
(dp3527
g13
F40064.454126851553
sba(i__main__
Gene
p3528
(dp3529
g13
F-33532.046685936228
sba(i__main__
Gene
p3530
(dp3531
g13
F18392.961533494992
sba(i__main__
Gene
p3532
(dp3533
g13
F-535.98538464182684
sba(i__main__
Gene
p3534
(dp3535
g13
F98.956403536683226
sba(i__main__
Gene
p3536
(dp3537
g13
F-83.547386758043899
sba(i__main__
Gene
p3538
(dp3539
g13
F272.19366644998541
sba(i__main__
Gene
p3540
(dp3541
g13
F-541.95850374424458
sba(i__main__
Gene
p3542
(dp3543
g13
F149.7925277623614
sba(i__main__
Gene
p3544
(dp3545
g13
F-10.019472025487957
sba(i__main__
Gene
p3546
(dp3547
g13
F4.305297349317061
sba(i__main__
Gene
p3548
(dp3549
g13
F-6.0600075998060987
sba(i__main__
Gene
p3550
(dp3551
g13
F23.808200534745449
sba(i__main__
Gene
p3552
(dp3553
g13
F-31.231559219556033
sba(i__main__
Gene
p3554
(dp3555
g13
F79.518458407305843
sba(i__main__
Gene
p3556
(dp3557
g13
F-7392.3829132040773
sba(i__main__
Gene
p3558
(dp3559
g13
F5555.5375365431992
sba(i__main__
Gene
p3560
(dp3561
g13
F-24743.232139452939
sba(i__main__
Gene
p3562
(dp3563
g13
F11477.225123293656
sba(i__main__
Gene
p3564
(dp3565
g13
F-28834.472172470942
sba(i__main__
Gene
p3566
(dp3567
g13
F11558.524566014854
sba(i__main__
Gene
p3568
(dp3569
g13
F-36.250850869285159
sba(i__main__
Gene
p3570
(dp3571
g13
F443.28704943257571
sba(i__main__
Gene
p3572
(dp3573
g13
F-636.09502144997873
sba(i__main__
Gene
p3574
(dp3575
g13
F671.34314899780509
sba(i__main__
Gene
p3576
(dp3577
g13
F-765.06553452462492
sba(i__main__
Gene
p3578
(dp3579
g13
F918.34761552146426
sba(i__main__
Gene
p3580
(dp3581
g13
F-25.621281058019775
sba(i__main__
Gene
p3582
(dp3583
g13
F75.279341782097674
sba(i__main__
Gene
p3584
(dp3585
g13
F-57.45252550068497
sba(i__main__
Gene
p3586
(dp3587
g13
F81.421297190652012
sba(i__main__
Gene
p3588
(dp3589
g13
F-69.232447635939934
sba(i__main__
Gene
p3590
(dp3591
g13
F58.03077618154817
sba(i__main__
Gene
p3592
(dp3593
g13
F-4749.061178959033
sba(i__main__
Gene
p3594
(dp3595
g13
F27686.566112797358
sba(i__main__
Gene
p3596
(dp3597
g13
F-512.04374210353126
sba(i__main__
Gene
p3598
(dp3599
g13
F9290.5427776963043
sba(i__main__
Gene
p3600
(dp3601
g13
F-8254.0513209369528
sba(i__main__
Gene
p3602
(dp3603
g13
F8032.8650111602301
sba(i__main__
Gene
p3604
(dp3605
g13
F-949.95350474752604
sba(i__main__
Gene
p3606
(dp3607
g13
F841.39833518903117
sba(i__main__
Gene
p3608
(dp3609
g13
F-755.21151492089712
sba(i__main__
Gene
p3610
(dp3611
g13
F647.56288131144311
sba(i__main__
Gene
p3612
(dp3613
g13
F-526.13424778411309
sba(i__main__
Gene
p3614
(dp3615
g13
F868.69639375673387
sba(i__main__
Gene
p3616
(dp3617
g13
F-84.566408970388835
sba(i__main__
Gene
p3618
(dp3619
g13
F5.6745794304689063
sba(i__main__
Gene
p3620
(dp3621
g13
F-32.025117441830716
sba(i__main__
Gene
p3622
(dp3623
g13
F23.288002406067566
sba(i__main__
Gene
p3624
(dp3625
g13
F-0.087647200096128586
sba(i__main__
Gene
p3626
(dp3627
g13
F36.872526982251074
sba(i__main__
Gene
p3628
(dp3629
g13
F-28954.728482922772
sba(i__main__
Gene
p3630
(dp3631
g13
F27833.892703478381
sba(i__main__
Gene
p3632
(dp3633
g13
F-38053.281544126607
sba(i__main__
Gene
p3634
(dp3635
g13
F9230.8791266094559
sba(i__main__
Gene
p3636
(dp3637
g13
F-20788.20092147066
sba(i__main__
Gene
p3638
(dp3639
g13
F42593.542843840274
sba(i__main__
Gene
p3640
(dp3641
g13
F-848.32944278086495
sba(i__main__
Gene
p3642
(dp3643
g13
F752.53150322590079
sba(i__main__
Gene
p3644
(dp3645
g13
F-819.67112216836006
sba(i__main__
Gene
p3646
(dp3647
g13
F872.26257188445049
sba(i__main__
Gene
p3648
(dp3649
g13
F-491.76366080708414
sba(i__main__
Gene
p3650
(dp3651
g13
F569.59399802703263
sba(i__main__
Gene
p3652
(dp3653
g13
F-66.429660840295355
sba(i__main__
Gene
p3654
(dp3655
g13
F72.273801001886596
sba(i__main__
Gene
p3656
(dp3657
g13
F-33.806649383504222
sba(i__main__
Gene
p3658
(dp3659
g13
F10.123404052109674
sba(i__main__
Gene
p3660
(dp3661
g13
F-1.6012880914928189
sba(i__main__
Gene
p3662
(dp3663
g13
F53.647229075300032
sba(i__main__
Gene
p3664
(dp3665
g13
F-9050.385780529803
sba(i__main__
Gene
p3666
(dp3667
g13
F47916.845694256896
sba(i__main__
Gene
p3668
(dp3669
g13
F-10864.097947831542
sba(i__main__
Gene
p3670
(dp3671
g13
F1815.7221074876088
sba(i__main__
Gene
p3672
(dp3673
g13
F-6817.0392647081753
sba(i__main__
Gene
p3674
(dp3675
g13
F6300.8159602529286
sba(i__main__
Gene
p3676
(dp3677
g13
F-164.2953019718102
sba(i__main__
Gene
p3678
(dp3679
g13
F5.297533543949462
sba(i__main__
Gene
p3680
(dp3681
g13
F-101.30638931749957
sba(i__main__
Gene
p3682
(dp3683
g13
F673.79818224163978
sba(i__main__
Gene
p3684
(dp3685
g13
F-607.84370102813045
sba(i__main__
Gene
p3686
(dp3687
g13
F473.04986160364882
sba(i__main__
Gene
p3688
(dp3689
g13
F-76.189102925653785
sba(i__main__
Gene
p3690
(dp3691
g13
F82.49784880852819
sba(i__main__
Gene
p3692
(dp3693
g13
F-75.92735775211213
sba(i__main__
Gene
p3694
(dp3695
g13
F4.4260053434687201
sba(i__main__
Gene
p3696
(dp3697
g13
F-63.222518978125485
sba(i__main__
Gene
p3698
(dp3699
g13
F55.765573911728353
sba(i__main__
Gene
p3700
(dp3701
g13
F-35069.899913331392
sba(i__main__
Gene
p3702
(dp3703
g13
F24399.430285212511
sba(i__main__
Gene
p3704
(dp3705
g13
F-12527.341053639793
sba(i__main__
Gene
p3706
(dp3707
g13
F36711.32596250299
sba(i__main__
Gene
p3708
(dp3709
g13
F-29835.885034028986
sba(i__main__
Gene
p3710
(dp3711
g13
F13618.77074369967
sba(i__main__
Gene
p3712
(dp3713
g13
F-906.15705222702195
sba(i__main__
Gene
p3714
(dp3715
g13
F981.13941265048811
sba(i__main__
Gene
p3716
(dp3717
g13
F-816.45997632533522
sba(i__main__
Gene
p3718
(dp3719
g13
F77.387465874330545
sba(i__main__
Gene
p3720
(dp3721
g13
F-24.264857140209983
sba(i__main__
Gene
p3722
(dp3723
g13
F145.75184216661174
sba(i__main__
Gene
p3724
(dp3725
g13
F-72.812752965005345
sba(i__main__
Gene
p3726
(dp3727
g13
F82.321432035664927
sba(i__main__
Gene
p3728
(dp3729
g13
F-21.377349447546152
sba(i__main__
Gene
p3730
(dp3731
g13
F15.132444835381353
sba(i__main__
Gene
p3732
(dp3733
g13
F-74.683093142729831
sba(i__main__
Gene
p3734
(dp3735
g13
F31.204710845433436
sba(i__main__
Gene
p3736
(dp3737
g13
F-42293.282719894589
sba(i__main__
Gene
p3738
(dp3739
g13
F47279.59958911885
sba(i__main__
Gene
p3740
(dp3741
g13
F-34271.853748850044
sba(i__main__
Gene
p3742
(dp3743
g13
F12178.324459937277
sba(i__main__
Gene
p3744
(dp3745
g13
F-29048.09918434238
sba(i__main__
Gene
p3746
(dp3747
g13
F33861.631888338736
sba(i__main__
Gene
p3748
(dp3749
g13
F-59.327260493371341
sba(i__main__
Gene
p3750
(dp3751
g13
F511.22932023749803
sba(i__main__
Gene
p3752
(dp3753
g13
F-689.54876728356464
sba(i__main__
Gene
p3754
(dp3755
g13
F437.29724483307564
sba(i__main__
Gene
p3756
(dp3757
g13
F-780.023152263101
sba(i__main__
Gene
p3758
(dp3759
g13
F34.171345177338885
sba(i__main__
Gene
p3760
(dp3761
g13
F-41.745568916319023
sba(i__main__
Gene
p3762
(dp3763
g13
F15.820298385260912
sba(i__main__
Gene
p3764
(dp3765
g13
F-21.226544127521791
sba(i__main__
Gene
p3766
(dp3767
g13
F25.139497317269832
sba(i__main__
Gene
p3768
(dp3769
g13
F-65.703415532504494
sba(i__main__
Gene
p3770
(dp3771
g13
F96.694411814333137
sba(i__main__
Gene
p3772
(dp3773
g13
F-21363.456541465428
sba(i__main__
Gene
p3774
(dp3775
g13
F28001.925584334582
sba(i__main__
Gene
p3776
(dp3777
g13
F-40975.835256271479
sba(i__main__
Gene
p3778
(dp3779
g13
F25096.31930081077
sba(i__main__
Gene
p3780
(dp3781
g13
F-31941.7684708589
sba(i__main__
Gene
p3782
(dp3783
g13
F20555.455638444324
sba(i__main__
Gene
p3784
(dp3785
g13
F-972.43312918380377
sba(i__main__
Gene
p3786
(dp3787
g13
F717.84420902903173
sba(i__main__
Gene
p3788
(dp3789
g13
F-622.07115311961422
sba(i__main__
Gene
p3790
(dp3791
g13
F155.004617720092
sba(i__main__
Gene
p3792
(dp3793
g13
F-639.99033819664851
sba(i__main__
Gene
p3794
(dp3795
g13
F701.27309703540197
sba(i__main__
Gene
p3796
(dp3797
g13
F-60.924135906784969
sba(i__main__
Gene
p3798
(dp3799
g13
F9.1625256417006149
sba(i__main__
Gene
p3800
(dp3801
g13
F-97.961325111335157
sba(i__main__
Gene
p3802
(dp3803
g13
F59.024537384190026
sba(i__main__
Gene
p3804
(dp3805
g13
F-33.747675551673893
sba(i__main__
Gene
p3806
(dp3807
g13
F0.69973625120000049
sba(i__main__
Gene
p3808
(dp3809
g13
F-5527.335201742877
sba(i__main__
Gene
p3810
(dp3811
g13
F40330.974777433563
sba(i__main__
Gene
p3812
(dp3813
g13
F-35202.568589222094
sba(i__main__
Gene
p3814
(dp3815
g13
F3074.9616967924503
sba(i__main__
Gene
p3816
(dp3817
g13
F-42111.941472513645
sba(i__main__
Gene
p3818
(dp3819
g13
F31179.613894091064
sba(i__main__
Gene
p3820
(dp3821
g13
F-334.16014653022057
sba(i__main__
Gene
p3822
(dp3823
g13
F349.89943028333789
sba(i__main__
Gene
p3824
(dp3825
g13
F-322.14321461200518
sba(i__main__
Gene
p3826
(dp3827
g13
F789.98489566904493
sba(i__main__
Gene
p3828
(dp3829
g13
F-295.18586409968134
sba(i__main__
Gene
p3830
(dp3831
g13
F543.6705782561686
sba(i__main__
Gene
p3832
(dp3833
g13
F-32.400897897650154
sba(i__main__
Gene
p3834
(dp3835
g13
F62.407880653372814
sba(i__main__
Gene
p3836
(dp3837
g13
F-77.347866902846448
sba(i__main__
Gene
p3838
(dp3839
g13
F7.373697540247881
sba(i__main__
Gene
p3840
(dp3841
g13
F-58.477870421420775
sba(i__main__
Gene
p3842
(dp3843
g13
F3.5247696072136403
sba(i__main__
Gene
p3844
(dp3845
g13
F-44434.860061071726
sba(i__main__
Gene
p3846
(dp3847
g13
F37961.644937571647
sba(i__main__
Gene
p3848
(dp3849
g13
F-27284.11231204764
sba(i__main__
Gene
p3850
(dp3851
g13
F27166.367412065854
sba(i__main__
Gene
p3852
(dp3853
g13
F-33408.395709189121
sba(i__main__
Gene
p3854
(dp3855
g13
F40856.538092857547
sba(i__main__
Gene
p3856
(dp3857
g13
F-554.52650781370676
sba(i__main__
Gene
p3858
(dp3859
g13
F379.25796949067325
sba(i__main__
Gene
p3860
(dp3861
g13
F-704.84911660434943
sba(i__main__
Gene
p3862
(dp3863
g13
F725.50856032362867
sba(i__main__
Gene
p3864
(dp3865
g13
F-949.22721009176303
sba(i__main__
Gene
p3866
(dp3867
g13
F263.78284366773875
sba(i__main__
Gene
p3868
(dp3869
g13
F-84.199888222280009
sba(i__main__
Gene
p3870
(dp3871
g13
F89.400458103857133
sba(i__main__
Gene
p3872
(dp3873
g13
F-15.506758905395927
sba(i__main__
Gene
p3874
(dp3875
g13
F42.442899979432156
sba(i__main__
Gene
p3876
(dp3877
g13
F-81.539159252301658
sba(i__main__
Gene
p3878
(dp3879
g13
F41.54836546031769
sba(i__main__
Gene
p3880
(dp3881
g13
F-31957.420122664902
sba(i__main__
Gene
p3882
(dp3883
g13
F43296.527533991131
sba(i__main__
Gene
p3884
(dp3885
g13
F-22809.808872130743
sba(i__main__
Gene
p3886
(dp3887
g13
F37092.885830374653
sba(i__main__
Gene
p3888
(dp3889
g13
F-12569.590384900381
sba(i__main__
Gene
p3890
(dp3891
g13
F41719.263083073965
sba(i__main__
Gene
p3892
(dp3893
g13
F-236.63481254445685
sba(i__main__
Gene
p3894
(dp3895
g13
F732.11515425354742
sba(i__main__
Gene
p3896
(dp3897
g13
F-42.210000997527345
sba(i__main__
Gene
p3898
(dp3899
g13
F995.96644869502484
sba(i__main__
Gene
p3900
(dp3901
g13
F-758.21896009727811
sba(i__main__
Gene
p3902
(dp3903
g13
F940.3735815761172
sba(i__main__
Gene
p3904
(dp3905
g13
F-86.08945308017779
sba(i__main__
Gene
p3906
(dp3907
g13
F79.808697373981161
sba(i__main__
Gene
p3908
(dp3909
g13
F-70.618514770312828
sba(i__main__
Gene
p3910
(dp3911
g13
F13.709541764482303
sba(i__main__
Gene
p3912
(dp3913
g13
F-26.132840653960784
sba(i__main__
Gene
p3914
(dp3915
g13
F91.178511466732076
sba(i__main__
Gene
p3916
(dp3917
g13
F-17749.832710853065
sba(i__main__
Gene
p3918
(dp3919
g13
F25506.027941996676
sba(i__main__
Gene
p3920
(dp3921
g13
F-31704.629277677333
sba(i__main__
Gene
p3922
(dp3923
g13
F30202.84149683634
sba(i__main__
Gene
p3924
(dp3925
g13
F-37398.270515485201
sba(i__main__
Gene
p3926
(dp3927
g13
F46566.552610149491
sba(i__main__
Gene
p3928
(dp3929
g13
F-959.4610650035147
sba(i__main__
Gene
p3930
(dp3931
g13
F922.67456011620811
sba(i__main__
Gene
p3932
(dp3933
g13
F-900.97470046374519
sba(i__main__
Gene
p3934
(dp3935
g13
F97.93580601555152
sba(i__main__
Gene
p3936
(dp3937
g13
F-25.123545710699773
sba(i__main__
Gene
p3938
(dp3939
g13
F368.19902422776943
sba(i__main__
Gene
p3940
(dp3941
g13
F-2.5971995590137169
sba(i__main__
Gene
p3942
(dp3943
g13
F11.95696241677946
sba(i__main__
Gene
p3944
(dp3945
g13
F-78.953900239049034
sba(i__main__
Gene
p3946
(dp3947
g13
F38.16462840032748
sba(i__main__
Gene
p3948
(dp3949
g13
F-72.666253089075354
sba(i__main__
Gene
p3950
(dp3951
g13
F78.922231441648023
sbatRp3952
(dp3953
g446
g7
(g447
g448
NtRp3954
(dp3955
g451
(F552.79999999999995
tp3956
sbsbag7
(g8
g9
(lp3957
(i__main__
Gene
p3958
(dp3959
g13
F-36744.150392075746
sba(i__main__
Gene
p3960
(dp3961
g13
F16386.236869897784
sba(i__main__
Gene
p3962
(dp3963
g13
F-11886.602364430757
sba(i__main__
Gene
p3964
(dp3965
g13
F611.22780570773159
sba(i__main__
Gene
p3966
(dp3967
g13
F-31451.638636928263
sba(i__main__
Gene
p3968
(dp3969
g13
F16278.90813004582
sba(i__main__
Gene
p3970
(dp3971
g13
F-2.460726443208614
sba(i__main__
Gene
p3972
(dp3973
g13
F212.22183389831716
sba(i__main__
Gene
p3974
(dp3975
g13
F-707.434936933789
sba(i__main__
Gene
p3976
(dp3977
g13
F29.910695559672074
sba(i__main__
Gene
p3978
(dp3979
g13
F-81.328942410440391
sba(i__main__
Gene
p3980
(dp3981
g13
F775.94435506074171
sba(i__main__
Gene
p3982
(dp3983
g13
F-77.295651394580176
sba(i__main__
Gene
p3984
(dp3985
g13
F95.666267956022054
sba(i__main__
Gene
p3986
(dp3987
g13
F-97.803891595842956
sba(i__main__
Gene
p3988
(dp3989
g13
F82.448257506318129
sba(i__main__
Gene
p3990
(dp3991
g13
F-48.168940504978899
sba(i__main__
Gene
p3992
(dp3993
g13
F60.897036420327765
sba(i__main__
Gene
p3994
(dp3995
g13
F-7354.9992128349913
sba(i__main__
Gene
p3996
(dp3997
g13
F6828.276872673483
sba(i__main__
Gene
p3998
(dp3999
g13
F-46125.842101426038
sba(i__main__
Gene
p4000
(dp4001
g13
F58.08811840983941
sba(i__main__
Gene
p4002
(dp4003
g13
F-20236.082953852161
sba(i__main__
Gene
p4004
(dp4005
g13
F38837.378721825866
sba(i__main__
Gene
p4006
(dp4007
g13
F-286.27072376566866
sba(i__main__
Gene
p4008
(dp4009
g13
F915.88191131493352
sba(i__main__
Gene
p4010
(dp4011
g13
F-823.29638601142881
sba(i__main__
Gene
p4012
(dp4013
g13
F749.96045118111999
sba(i__main__
Gene
p4014
(dp4015
g13
F-852.6551177755108
sba(i__main__
Gene
p4016
(dp4017
g13
F123.96927921014145
sba(i__main__
Gene
p4018
(dp4019
g13
F-55.939511503848479
sba(i__main__
Gene
p4020
(dp4021
g13
F85.93826277795678
sba(i__main__
Gene
p4022
(dp4023
g13
F-59.190165436202754
sba(i__main__
Gene
p4024
(dp4025
g13
F76.655984810284977
sba(i__main__
Gene
p4026
(dp4027
g13
F-1.0267876559653075
sba(i__main__
Gene
p4028
(dp4029
g13
F45.30778069153105
sba(i__main__
Gene
p4030
(dp4031
g13
F-18060.798990196268
sba(i__main__
Gene
p4032
(dp4033
g13
F25181.592016089842
sba(i__main__
Gene
p4034
(dp4035
g13
F-43390.327890643726
sba(i__main__
Gene
p4036
(dp4037
g13
F14332.809578657179
sba(i__main__
Gene
p4038
(dp4039
g13
F-19695.253127033764
sba(i__main__
Gene
p4040
(dp4041
g13
F39411.099013042294
sba(i__main__
Gene
p4042
(dp4043
g13
F-896.15221365209709
sba(i__main__
Gene
p4044
(dp4045
g13
F261.01457110663694
sba(i__main__
Gene
p4046
(dp4047
g13
F-278.46798583212615
sba(i__main__
Gene
p4048
(dp4049
g13
F333.55329266436087
sba(i__main__
Gene
p4050
(dp4051
g13
F-494.74279643264606
sba(i__main__
Gene
p4052
(dp4053
g13
F610.83172031532342
sba(i__main__
Gene
p4054
(dp4055
g13
F-35.866458429706597
sba(i__main__
Gene
p4056
(dp4057
g13
F53.121541409010462
sba(i__main__
Gene
p4058
(dp4059
g13
F-49.556593585467503
sba(i__main__
Gene
p4060
(dp4061
g13
F2.7387148873406431
sba(i__main__
Gene
p4062
(dp4063
g13
F-35.285084925396177
sba(i__main__
Gene
p4064
(dp4065
g13
F97.824293246747189
sba(i__main__
Gene
p4066
(dp4067
g13
F-40356.84483427908
sba(i__main__
Gene
p4068
(dp4069
g13
F44869.053164825164
sba(i__main__
Gene
p4070
(dp4071
g13
F-11611.377671918861
sba(i__main__
Gene
p4072
(dp4073
g13
F43972.755329786116
sba(i__main__
Gene
p4074
(dp4075
g13
F-15958.179419677177
sba(i__main__
Gene
p4076
(dp4077
g13
F15376.356274931879
sba(i__main__
Gene
p4078
(dp4079
g13
F-365.10895699706407
sba(i__main__
Gene
p4080
(dp4081
g13
F94.497225217018311
sba(i__main__
Gene
p4082
(dp4083
g13
F-891.43196284731494
sba(i__main__
Gene
p4084
(dp4085
g13
F749.55217751620319
sba(i__main__
Gene
p4086
(dp4087
g13
F-126.63243787893043
sba(i__main__
Gene
p4088
(dp4089
g13
F32.984065190037711
sba(i__main__
Gene
p4090
(dp4091
g13
F-20.794547163540699
sba(i__main__
Gene
p4092
(dp4093
g13
F21.198774096025208
sba(i__main__
Gene
p4094
(dp4095
g13
F-53.779505218048705
sba(i__main__
Gene
p4096
(dp4097
g13
F6.3413659421358464
sba(i__main__
Gene
p4098
(dp4099
g13
F-88.274268775044177
sba(i__main__
Gene
p4100
(dp4101
g13
F50.795082971456615
sba(i__main__
Gene
p4102
(dp4103
g13
F-8474.7867809877353
sba(i__main__
Gene
p4104
(dp4105
g13
F17870.091242597056
sba(i__main__
Gene
p4106
(dp4107
g13
F-3665.0894202665222
sba(i__main__
Gene
p4108
(dp4109
g13
F10047.082483193288
sba(i__main__
Gene
p4110
(dp4111
g13
F-10956.756451226764
sba(i__main__
Gene
p4112
(dp4113
g13
F3296.8971346301337
sba(i__main__
Gene
p4114
(dp4115
g13
F-678.20739898058127
sba(i__main__
Gene
p4116
(dp4117
g13
F350.62710381114459
sba(i__main__
Gene
p4118
(dp4119
g13
F-910.22135784960903
sba(i__main__
Gene
p4120
(dp4121
g13
F339.297289713243
sba(i__main__
Gene
p4122
(dp4123
g13
F-739.21588601617168
sba(i__main__
Gene
p4124
(dp4125
g13
F911.71867800061978
sba(i__main__
Gene
p4126
(dp4127
g13
F-10.863936906902453
sba(i__main__
Gene
p4128
(dp4129
g13
F7.4247883357662303
sba(i__main__
Gene
p4130
(dp4131
g13
F-45.622118133733792
sba(i__main__
Gene
p4132
(dp4133
g13
F92.081949756636448
sba(i__main__
Gene
p4134
(dp4135
g13
F-28.20637314529931
sba(i__main__
Gene
p4136
(dp4137
g13
F69.530264874877844
sba(i__main__
Gene
p4138
(dp4139
g13
F-36789.400097945952
sba(i__main__
Gene
p4140
(dp4141
g13
F11000.93147588274
sba(i__main__
Gene
p4142
(dp4143
g13
F-45834.436013750164
sba(i__main__
Gene
p4144
(dp4145
g13
F47685.019713545087
sba(i__main__
Gene
p4146
(dp4147
g13
F-24844.595763844925
sba(i__main__
Gene
p4148
(dp4149
g13
F40920.490024744046
sba(i__main__
Gene
p4150
(dp4151
g13
F-156.74409366881571
sba(i__main__
Gene
p4152
(dp4153
g13
F723.78606505240577
sba(i__main__
Gene
p4154
(dp4155
g13
F-458.63179192744406
sba(i__main__
Gene
p4156
(dp4157
g13
F286.39117840703375
sba(i__main__
Gene
p4158
(dp4159
g13
F-448.87825707942727
sba(i__main__
Gene
p4160
(dp4161
g13
F615.26941656922008
sba(i__main__
Gene
p4162
(dp4163
g13
F-84.004340306372356
sba(i__main__
Gene
p4164
(dp4165
g13
F11.703434547344905
sba(i__main__
Gene
p4166
(dp4167
g13
F-3.8092415938164663
sba(i__main__
Gene
p4168
(dp4169
g13
F16.975695022728431
sba(i__main__
Gene
p4170
(dp4171
g13
F-79.335725682453187
sba(i__main__
Gene
p4172
(dp4173
g13
F86.725754723504195
sba(i__main__
Gene
p4174
(dp4175
g13
F-25325.373442803051
sba(i__main__
Gene
p4176
(dp4177
g13
F31142.29854878952
sba(i__main__
Gene
p4178
(dp4179
g13
F-37035.350531273027
sba(i__main__
Gene
p4180
(dp4181
g13
F22378.855310109597
sba(i__main__
Gene
p4182
(dp4183
g13
F-36073.715270313201
sba(i__main__
Gene
p4184
(dp4185
g13
F7898.0923601365885
sba(i__main__
Gene
p4186
(dp4187
g13
F-250.2996702063914
sba(i__main__
Gene
p4188
(dp4189
g13
F463.91052346521246
sba(i__main__
Gene
p4190
(dp4191
g13
F-96.917505564417638
sba(i__main__
Gene
p4192
(dp4193
g13
F588.01837149560708
sba(i__main__
Gene
p4194
(dp4195
g13
F-296.76855275229639
sba(i__main__
Gene
p4196
(dp4197
g13
F908.32398390971753
sba(i__main__
Gene
p4198
(dp4199
g13
F-58.373661920941444
sba(i__main__
Gene
p4200
(dp4201
g13
F56.508873537391501
sba(i__main__
Gene
p4202
(dp4203
g13
F-9.1799368473324137
sba(i__main__
Gene
p4204
(dp4205
g13
F52.585448567259121
sba(i__main__
Gene
p4206
(dp4207
g13
F-4.7770974173782861
sba(i__main__
Gene
p4208
(dp4209
g13
F92.919154510418792
sba(i__main__
Gene
p4210
(dp4211
g13
F-36651.855057613328
sba(i__main__
Gene
p4212
(dp4213
g13
F6371.8752316313658
sba(i__main__
Gene
p4214
(dp4215
g13
F-21448.810711586666
sba(i__main__
Gene
p4216
(dp4217
g13
F20400.202572074235
sba(i__main__
Gene
p4218
(dp4219
g13
F-21704.229735070829
sba(i__main__
Gene
p4220
(dp4221
g13
F42139.864721196405
sba(i__main__
Gene
p4222
(dp4223
g13
F-270.69533273482944
sba(i__main__
Gene
p4224
(dp4225
g13
F712.65711740137465
sba(i__main__
Gene
p4226
(dp4227
g13
F-478.80853625789825
sba(i__main__
Gene
p4228
(dp4229
g13
F611.57616339946298
sba(i__main__
Gene
p4230
(dp4231
g13
F-906.76008655794999
sba(i__main__
Gene
p4232
(dp4233
g13
F93.33958032962353
sba(i__main__
Gene
p4234
(dp4235
g13
F-18.776441833061924
sba(i__main__
Gene
p4236
(dp4237
g13
F79.364974180550092
sba(i__main__
Gene
p4238
(dp4239
g13
F-45.179732900535306
sba(i__main__
Gene
p4240
(dp4241
g13
F27.536972952069561
sba(i__main__
Gene
p4242
(dp4243
g13
F-41.626732285740395
sba(i__main__
Gene
p4244
(dp4245
g13
F30.564884820319705
sba(i__main__
Gene
p4246
(dp4247
g13
F-15633.313879190355
sba(i__main__
Gene
p4248
(dp4249
g13
F13944.116602228041
sba(i__main__
Gene
p4250
(dp4251
g13
F-26748.023929153995
sba(i__main__
Gene
p4252
(dp4253
g13
F5747.8210372431186
sba(i__main__
Gene
p4254
(dp4255
g13
F-5563.3877062407337
sba(i__main__
Gene
p4256
(dp4257
g13
F2451.9194060248774
sba(i__main__
Gene
p4258
(dp4259
g13
F-657.48127455662564
sba(i__main__
Gene
p4260
(dp4261
g13
F703.12308693234604
sba(i__main__
Gene
p4262
(dp4263
g13
F-341.75195397607229
sba(i__main__
Gene
p4264
(dp4265
g13
F314.83254273617177
sba(i__main__
Gene
p4266
(dp4267
g13
F-465.96038025493806
sba(i__main__
Gene
p4268
(dp4269
g13
F60.93529171542211
sba(i__main__
Gene
p4270
(dp4271
g13
F-2.5201568486853603
sba(i__main__
Gene
p4272
(dp4273
g13
F84.66308398405576
sba(i__main__
Gene
p4274
(dp4275
g13
F-41.941341047686912
sba(i__main__
Gene
p4276
(dp4277
g13
F45.278132906915012
sba(i__main__
Gene
p4278
(dp4279
g13
F-73.850164626364204
sba(i__main__
Gene
p4280
(dp4281
g13
F91.055497567673001
sba(i__main__
Gene
p4282
(dp4283
g13
F-30150.386771154026
sba(i__main__
Gene
p4284
(dp4285
g13
F19611.139634479987
sba(i__main__
Gene
p4286
(dp4287
g13
F-26560.511800426764
sba(i__main__
Gene
p4288
(dp4289
g13
F23504.546402316064
sba(i__main__
Gene
p4290
(dp4291
g13
F-28149.671988661677
sba(i__main__
Gene
p4292
(dp4293
g13
F34512.590343928983
sba(i__main__
Gene
p4294
(dp4295
g13
F-42.15954046937884
sba(i__main__
Gene
p4296
(dp4297
g13
F816.33878205894916
sba(i__main__
Gene
p4298
(dp4299
g13
F-34.467768788594071
sba(i__main__
Gene
p4300
(dp4301
g13
F869.90270282567531
sba(i__main__
Gene
p4302
(dp4303
g13
F-680.43014549585041
sba(i__main__
Gene
p4304
(dp4305
g13
F615.10641770864925
sba(i__main__
Gene
p4306
(dp4307
g13
F-73.102398720108283
sba(i__main__
Gene
p4308
(dp4309
g13
F61.75971143198106
sba(i__main__
Gene
p4310
(dp4311
g13
F-31.804614381193915
sba(i__main__
Gene
p4312
(dp4313
g13
F53.650210694179378
sba(i__main__
Gene
p4314
(dp4315
g13
F-47.7796114439071
sba(i__main__
Gene
p4316
(dp4317
g13
F25.520656131542886
sba(i__main__
Gene
p4318
(dp4319
g13
F-40654.78943063831
sba(i__main__
Gene
p4320
(dp4321
g13
F25903.042349480729
sba(i__main__
Gene
p4322
(dp4323
g13
F-34019.962102739621
sba(i__main__
Gene
p4324
(dp4325
g13
F38393.39951873455
sba(i__main__
Gene
p4326
(dp4327
g13
F-39582.54590611421
sba(i__main__
Gene
p4328
(dp4329
g13
F5249.9830726847258
sba(i__main__
Gene
p4330
(dp4331
g13
F-771.58659258343891
sba(i__main__
Gene
p4332
(dp4333
g13
F242.99531357744209
sba(i__main__
Gene
p4334
(dp4335
g13
F-733.08964430047126
sba(i__main__
Gene
p4336
(dp4337
g13
F363.44280115017438
sba(i__main__
Gene
p4338
(dp4339
g13
F-494.70208957939354
sba(i__main__
Gene
p4340
(dp4341
g13
F696.8272032275537
sba(i__main__
Gene
p4342
(dp4343
g13
F-80.160617426526883
sba(i__main__
Gene
p4344
(dp4345
g13
F0.95482710275275329
sba(i__main__
Gene
p4346
(dp4347
g13
F-58.794363509503256
sba(i__main__
Gene
p4348
(dp4349
g13
F72.011230955057954
sba(i__main__
Gene
p4350
(dp4351
g13
F-4.1893044452486095
sba(i__main__
Gene
p4352
(dp4353
g13
F69.251886885491018
sba(i__main__
Gene
p4354
(dp4355
g13
F-34434.078487045626
sba(i__main__
Gene
p4356
(dp4357
g13
F41098.063153618263
sba(i__main__
Gene
p4358
(dp4359
g13
F-18867.469728379216
sba(i__main__
Gene
p4360
(dp4361
g13
F22288.158995512462
sba(i__main__
Gene
p4362
(dp4363
g13
F-5615.5231368074965
sba(i__main__
Gene
p4364
(dp4365
g13
F36668.533530862165
sba(i__main__
Gene
p4366
(dp4367
g13
F-934.38606372668994
sba(i__main__
Gene
p4368
(dp4369
g13
F233.50406850495253
sba(i__main__
Gene
p4370
(dp4371
g13
F-906.2727491738849
sba(i__main__
Gene
p4372
(dp4373
g13
F787.8825051389083
sba(i__main__
Gene
p4374
(dp4375
g13
F-72.86439003031785
sba(i__main__
Gene
p4376
(dp4377
g13
F451.41674955310964
sba(i__main__
Gene
p4378
(dp4379
g13
F-46.832820505353965
sba(i__main__
Gene
p4380
(dp4381
g13
F70.905660982317485
sba(i__main__
Gene
p4382
(dp4383
g13
F-27.359866360983645
sba(i__main__
Gene
p4384
(dp4385
g13
F39.948043028494538
sba(i__main__
Gene
p4386
(dp4387
g13
F-69.421979476728964
sba(i__main__
Gene
p4388
(dp4389
g13
F68.14108264059692
sbatRp4390
(dp4391
g446
g7
(g447
g448
NtRp4392
(dp4393
g451
(F489.19999999999999
tp4394
sbsbag7
(g8
g9
(lp4395
(i__main__
Gene
p4396
(dp4397
g13
F-39523.589925823508
sba(i__main__
Gene
p4398
(dp4399
g13
F7383.29851680498
sba(i__main__
Gene
p4400
(dp4401
g13
F-3702.2165487440798
sba(i__main__
Gene
p4402
(dp4403
g13
F37445.114129616668
sba(i__main__
Gene
p4404
(dp4405
g13
F-9178.0036569928925
sba(i__main__
Gene
p4406
(dp4407
g13
F20149.02839547057
sba(i__main__
Gene
p4408
(dp4409
g13
F-253.96017832753137
sba(i__main__
Gene
p4410
(dp4411
g13
F44.110633752898252
sba(i__main__
Gene
p4412
(dp4413
g13
F-423.67551016868867
sba(i__main__
Gene
p4414
(dp4415
g13
F67.251296042756152
sba(i__main__
Gene
p4416
(dp4417
g13
F-937.05367247157301
sba(i__main__
Gene
p4418
(dp4419
g13
F671.19462526693258
sba(i__main__
Gene
p4420
(dp4421
g13
F-72.042309415913024
sba(i__main__
Gene
p4422
(dp4423
g13
F29.995209084049655
sba(i__main__
Gene
p4424
(dp4425
g13
F-29.712887354461628
sba(i__main__
Gene
p4426
(dp4427
g13
F69.059923414710084
sba(i__main__
Gene
p4428
(dp4429
g13
F-67.240975564722604
sba(i__main__
Gene
p4430
(dp4431
g13
F65.374961996607155
sba(i__main__
Gene
p4432
(dp4433
g13
F-46988.304795740289
sba(i__main__
Gene
p4434
(dp4435
g13
F25616.308586229199
sba(i__main__
Gene
p4436
(dp4437
g13
F-39255.975808067029
sba(i__main__
Gene
p4438
(dp4439
g13
F19071.401317539967
sba(i__main__
Gene
p4440
(dp4441
g13
F-5860.6066092381589
sba(i__main__
Gene
p4442
(dp4443
g13
F12159.218701949021
sba(i__main__
Gene
p4444
(dp4445
g13
F-679.47157211212743
sba(i__main__
Gene
p4446
(dp4447
g13
F578.59698688499088
sba(i__main__
Gene
p4448
(dp4449
g13
F-542.07212782189026
sba(i__main__
Gene
p4450
(dp4451
g13
F959.01416723738782
sba(i__main__
Gene
p4452
(dp4453
g13
F-600.75684619901767
sba(i__main__
Gene
p4454
(dp4455
g13
F209.78058066652792
sba(i__main__
Gene
p4456
(dp4457
g13
F-82.771316213443598
sba(i__main__
Gene
p4458
(dp4459
g13
F93.593463830818948
sba(i__main__
Gene
p4460
(dp4461
g13
F-90.64272075670317
sba(i__main__
Gene
p4462
(dp4463
g13
F94.175258232130972
sba(i__main__
Gene
p4464
(dp4465
g13
F-43.198502243494609
sba(i__main__
Gene
p4466
(dp4467
g13
F76.685542833207322
sba(i__main__
Gene
p4468
(dp4469
g13
F-39116.300827492116
sba(i__main__
Gene
p4470
(dp4471
g13
F24811.18366727696
sba(i__main__
Gene
p4472
(dp4473
g13
F-15940.511244604953
sba(i__main__
Gene
p4474
(dp4475
g13
F30022.089604740118
sba(i__main__
Gene
p4476
(dp4477
g13
F-24563.390379144148
sba(i__main__
Gene
p4478
(dp4479
g13
F9302.2084115178895
sba(i__main__
Gene
p4480
(dp4481
g13
F-209.12130059119374
sba(i__main__
Gene
p4482
(dp4483
g13
F345.40644722425617
sba(i__main__
Gene
p4484
(dp4485
g13
F-949.74268353439936
sba(i__main__
Gene
p4486
(dp4487
g13
F709.37547927103174
sba(i__main__
Gene
p4488
(dp4489
g13
F-870.08582221959114
sba(i__main__
Gene
p4490
(dp4491
g13
F727.14737994153109
sba(i__main__
Gene
p4492
(dp4493
g13
F-23.14092928227808
sba(i__main__
Gene
p4494
(dp4495
g13
F64.86083671687652
sba(i__main__
Gene
p4496
(dp4497
g13
F-92.834547736358417
sba(i__main__
Gene
p4498
(dp4499
g13
F82.965921004710054
sba(i__main__
Gene
p4500
(dp4501
g13
F-72.393388871637043
sba(i__main__
Gene
p4502
(dp4503
g13
F73.657279465671152
sba(i__main__
Gene
p4504
(dp4505
g13
F-40875.685963244759
sba(i__main__
Gene
p4506
(dp4507
g13
F33289.829060552045
sba(i__main__
Gene
p4508
(dp4509
g13
F-45750.695023166663
sba(i__main__
Gene
p4510
(dp4511
g13
F35839.417252860534
sba(i__main__
Gene
p4512
(dp4513
g13
F-3508.2763775273488
sba(i__main__
Gene
p4514
(dp4515
g13
F12145.059976843802
sba(i__main__
Gene
p4516
(dp4517
g13
F-813.53688414465319
sba(i__main__
Gene
p4518
(dp4519
g13
F564.42866500584489
sba(i__main__
Gene
p4520
(dp4521
g13
F-869.45752566777196
sba(i__main__
Gene
p4522
(dp4523
g13
F394.29448980676773
sba(i__main__
Gene
p4524
(dp4525
g13
F-650.89831054431636
sba(i__main__
Gene
p4526
(dp4527
g13
F350.37371538675245
sba(i__main__
Gene
p4528
(dp4529
g13
F-88.213923398311351
sba(i__main__
Gene
p4530
(dp4531
g13
F78.951867331117754
sba(i__main__
Gene
p4532
(dp4533
g13
F-44.632121448555765
sba(i__main__
Gene
p4534
(dp4535
g13
F3.6276703188051873
sba(i__main__
Gene
p4536
(dp4537
g13
F-71.906295917361348
sba(i__main__
Gene
p4538
(dp4539
g13
F90.041644625465153
sba(i__main__
Gene
p4540
(dp4541
g13
F-27899.345772140579
sba(i__main__
Gene
p4542
(dp4543
g13
F32853.695547117619
sba(i__main__
Gene
p4544
(dp4545
g13
F-18093.126234503732
sba(i__main__
Gene
p4546
(dp4547
g13
F3282.0040370022102
sba(i__main__
Gene
p4548
(dp4549
g13
F-42013.081478003223
sba(i__main__
Gene
p4550
(dp4551
g13
F14142.797126800133
sba(i__main__
Gene
p4552
(dp4553
g13
F-507.85920698583618
sba(i__main__
Gene
p4554
(dp4555
g13
F424.25483509242258
sba(i__main__
Gene
p4556
(dp4557
g13
F-823.7494635272808
sba(i__main__
Gene
p4558
(dp4559
g13
F288.30777507936256
sba(i__main__
Gene
p4560
(dp4561
g13
F-870.78552471120634
sba(i__main__
Gene
p4562
(dp4563
g13
F110.3406381841926
sba(i__main__
Gene
p4564
(dp4565
g13
F-65.146725371102093
sba(i__main__
Gene
p4566
(dp4567
g13
F9.8461128488960377
sba(i__main__
Gene
p4568
(dp4569
g13
F-6.5925064677970369
sba(i__main__
Gene
p4570
(dp4571
g13
F11.513258930223758
sba(i__main__
Gene
p4572
(dp4573
g13
F-93.831697621317304
sba(i__main__
Gene
p4574
(dp4575
g13
F13.359088976751565
sba(i__main__
Gene
p4576
(dp4577
g13
F-26237.316687964219
sba(i__main__
Gene
p4578
(dp4579
g13
F27288.554522211591
sba(i__main__
Gene
p4580
(dp4581
g13
F-17456.28609382057
sba(i__main__
Gene
p4582
(dp4583
g13
F18414.565770969821
sba(i__main__
Gene
p4584
(dp4585
g13
F-3053.9835128840568
sba(i__main__
Gene
p4586
(dp4587
g13
F36558.639232727168
sba(i__main__
Gene
p4588
(dp4589
g13
F-671.47214309466335
sba(i__main__
Gene
p4590
(dp4591
g13
F0.6365999502775388
sba(i__main__
Gene
p4592
(dp4593
g13
F-852.30063563683541
sba(i__main__
Gene
p4594
(dp4595
g13
F700.77890296155249
sba(i__main__
Gene
p4596
(dp4597
g13
F-741.66741495387612
sba(i__main__
Gene
p4598
(dp4599
g13
F744.43678492505239
sba(i__main__
Gene
p4600
(dp4601
g13
F-25.690206654688083
sba(i__main__
Gene
p4602
(dp4603
g13
F75.566594902748776
sba(i__main__
Gene
p4604
(dp4605
g13
F-98.003442204113639
sba(i__main__
Gene
p4606
(dp4607
g13
F27.133778308952451
sba(i__main__
Gene
p4608
(dp4609
g13
F-39.293189736919096
sba(i__main__
Gene
p4610
(dp4611
g13
F57.868271662976014
sba(i__main__
Gene
p4612
(dp4613
g13
F-21715.027145222492
sba(i__main__
Gene
p4614
(dp4615
g13
F28110.914369667284
sba(i__main__
Gene
p4616
(dp4617
g13
F-5619.1245556163776
sba(i__main__
Gene
p4618
(dp4619
g13
F34555.119044849642
sba(i__main__
Gene
p4620
(dp4621
g13
F-36361.998517471482
sba(i__main__
Gene
p4622
(dp4623
g13
F28171.896951729697
sba(i__main__
Gene
p4624
(dp4625
g13
F-898.73572297866929
sba(i__main__
Gene
p4626
(dp4627
g13
F138.57768466390641
sba(i__main__
Gene
p4628
(dp4629
g13
F-631.30144934062901
sba(i__main__
Gene
p4630
(dp4631
g13
F848.14191792941369
sba(i__main__
Gene
p4632
(dp4633
g13
F-484.69733531877546
sba(i__main__
Gene
p4634
(dp4635
g13
F694.48630882609018
sba(i__main__
Gene
p4636
(dp4637
g13
F-21.202263191433261
sba(i__main__
Gene
p4638
(dp4639
g13
F19.970928955919643
sba(i__main__
Gene
p4640
(dp4641
g13
F-42.270539248784047
sba(i__main__
Gene
p4642
(dp4643
g13
F36.314138152442169
sba(i__main__
Gene
p4644
(dp4645
g13
F-96.93077678462943
sba(i__main__
Gene
p4646
(dp4647
g13
F53.336527102513763
sba(i__main__
Gene
p4648
(dp4649
g13
F-26676.445991807901
sba(i__main__
Gene
p4650
(dp4651
g13
F35104.552324134231
sba(i__main__
Gene
p4652
(dp4653
g13
F-32775.380862691163
sba(i__main__
Gene
p4654
(dp4655
g13
F34636.968964753505
sba(i__main__
Gene
p4656
(dp4657
g13
F-21702.767492366766
sba(i__main__
Gene
p4658
(dp4659
g13
F33405.359543080427
sba(i__main__
Gene
p4660
(dp4661
g13
F-202.79577183886147
sba(i__main__
Gene
p4662
(dp4663
g13
F181.6992162964458
sba(i__main__
Gene
p4664
(dp4665
g13
F-709.29412424031216
sba(i__main__
Gene
p4666
(dp4667
g13
F694.73364159407834
sba(i__main__
Gene
p4668
(dp4669
g13
F-237.57434534033598
sba(i__main__
Gene
p4670
(dp4671
g13
F320.89574159237634
sba(i__main__
Gene
p4672
(dp4673
g13
F-57.169686931718665
sba(i__main__
Gene
p4674
(dp4675
g13
F51.752005801832446
sba(i__main__
Gene
p4676
(dp4677
g13
F-29.557926756824216
sba(i__main__
Gene
p4678
(dp4679
g13
F0.61132212074914705
sba(i__main__
Gene
p4680
(dp4681
g13
F-78.8497782172348
sba(i__main__
Gene
p4682
(dp4683
g13
F53.08226615761388
sba(i__main__
Gene
p4684
(dp4685
g13
F-13191.155750547587
sba(i__main__
Gene
p4686
(dp4687
g13
F7052.9169754691475
sba(i__main__
Gene
p4688
(dp4689
g13
F-21230.123437048554
sba(i__main__
Gene
p4690
(dp4691
g13
F43695.712988397885
sba(i__main__
Gene
p4692
(dp4693
g13
F-9452.1959372294587
sba(i__main__
Gene
p4694
(dp4695
g13
F20852.70833558077
sba(i__main__
Gene
p4696
(dp4697
g13
F-832.16870207969532
sba(i__main__
Gene
p4698
(dp4699
g13
F778.81796492787339
sba(i__main__
Gene
p4700
(dp4701
g13
F-617.14497749841416
sba(i__main__
Gene
p4702
(dp4703
g13
F363.00593704221882
sba(i__main__
Gene
p4704
(dp4705
g13
F-570.61665109912769
sba(i__main__
Gene
p4706
(dp4707
g13
F131.94538840304759
sba(i__main__
Gene
p4708
(dp4709
g13
F-62.261103133092412
sba(i__main__
Gene
p4710
(dp4711
g13
F56.858356141097019
sba(i__main__
Gene
p4712
(dp4713
g13
F-98.665581152608567
sba(i__main__
Gene
p4714
(dp4715
g13
F49.392789028916987
sba(i__main__
Gene
p4716
(dp4717
g13
F-6.1981010078554704
sba(i__main__
Gene
p4718
(dp4719
g13
F43.915461338269694
sba(i__main__
Gene
p4720
(dp4721
g13
F-29115.888215038518
sba(i__main__
Gene
p4722
(dp4723
g13
F47019.057466803752
sba(i__main__
Gene
p4724
(dp4725
g13
F-32273.878104002652
sba(i__main__
Gene
p4726
(dp4727
g13
F9068.6910285571885
sba(i__main__
Gene
p4728
(dp4729
g13
F-42234.433693915678
sba(i__main__
Gene
p4730
(dp4731
g13
F46087.145867946921
sba(i__main__
Gene
p4732
(dp4733
g13
F-856.6162616130506
sba(i__main__
Gene
p4734
(dp4735
g13
F30.739001104641449
sba(i__main__
Gene
p4736
(dp4737
g13
F-133.05972915506209
sba(i__main__
Gene
p4738
(dp4739
g13
F444.85275511811994
sba(i__main__
Gene
p4740
(dp4741
g13
F-849.57333832073891
sba(i__main__
Gene
p4742
(dp4743
g13
F494.4993635725242
sba(i__main__
Gene
p4744
(dp4745
g13
F-28.238432315868536
sba(i__main__
Gene
p4746
(dp4747
g13
F99.777278480134527
sba(i__main__
Gene
p4748
(dp4749
g13
F-73.034028882110178
sba(i__main__
Gene
p4750
(dp4751
g13
F22.655568217385568
sba(i__main__
Gene
p4752
(dp4753
g13
F-49.516662350350693
sba(i__main__
Gene
p4754
(dp4755
g13
F63.226964600910442
sba(i__main__
Gene
p4756
(dp4757
g13
F-27367.376174317153
sba(i__main__
Gene
p4758
(dp4759
g13
F15192.727483262841
sba(i__main__
Gene
p4760
(dp4761
g13
F-29863.203522245956
sba(i__main__
Gene
p4762
(dp4763
g13
F12911.930683998893
sba(i__main__
Gene
p4764
(dp4765
g13
F-14370.448543389495
sba(i__main__
Gene
p4766
(dp4767
g13
F34872.664161462431
sba(i__main__
Gene
p4768
(dp4769
g13
F-810.96013767323018
sba(i__main__
Gene
p4770
(dp4771
g13
F488.07966459107774
sba(i__main__
Gene
p4772
(dp4773
g13
F-98.564193052837368
sba(i__main__
Gene
p4774
(dp4775
g13
F6.2017273482412039
sba(i__main__
Gene
p4776
(dp4777
g13
F-813.90928673211465
sba(i__main__
Gene
p4778
(dp4779
g13
F365.09731270921509
sba(i__main__
Gene
p4780
(dp4781
g13
F-91.175004599141303
sba(i__main__
Gene
p4782
(dp4783
g13
F92.426594413708727
sba(i__main__
Gene
p4784
(dp4785
g13
F-29.788804226321943
sba(i__main__
Gene
p4786
(dp4787
g13
F48.621937985358258
sba(i__main__
Gene
p4788
(dp4789
g13
F-10.12313662427978
sba(i__main__
Gene
p4790
(dp4791
g13
F88.720673794559417
sba(i__main__
Gene
p4792
(dp4793
g13
F-23854.099678860272
sba(i__main__
Gene
p4794
(dp4795
g13
F14723.870738434558
sba(i__main__
Gene
p4796
(dp4797
g13
F-37524.198274660215
sba(i__main__
Gene
p4798
(dp4799
g13
F8483.2600050768397
sba(i__main__
Gene
p4800
(dp4801
g13
F-7456.5404991954274
sba(i__main__
Gene
p4802
(dp4803
g13
F34356.228728863309
sba(i__main__
Gene
p4804
(dp4805
g13
F-892.24614569827077
sba(i__main__
Gene
p4806
(dp4807
g13
F617.29271071372034
sba(i__main__
Gene
p4808
(dp4809
g13
F-26.630054268779304
sba(i__main__
Gene
p4810
(dp4811
g13
F160.45666232975552
sba(i__main__
Gene
p4812
(dp4813
g13
F-74.043407883800569
sba(i__main__
Gene
p4814
(dp4815
g13
F212.74050039898472
sba(i__main__
Gene
p4816
(dp4817
g13
F-76.008451790046365
sba(i__main__
Gene
p4818
(dp4819
g13
F85.348270303727119
sba(i__main__
Gene
p4820
(dp4821
g13
F-3.9535793071784013
sba(i__main__
Gene
p4822
(dp4823
g13
F6.2893145853239236
sba(i__main__
Gene
p4824
(dp4825
g13
F-14.170899822313771
sba(i__main__
Gene
p4826
(dp4827
g13
F32.859117455602338
sbatRp4828
(dp4829
g446
g7
(g447
g448
NtRp4830
(dp4831
g451
(F503
tp4832
sbsbag7
(g8
g9
(lp4833
(i__main__
Gene
p4834
(dp4835
g13
F-10922.134044389219
sba(i__main__
Gene
p4836
(dp4837
g13
F44841.52117935042
sba(i__main__
Gene
p4838
(dp4839
g13
F-46520.858766013254
sba(i__main__
Gene
p4840
(dp4841
g13
F441.15292087083162
sba(i__main__
Gene
p4842
(dp4843
g13
F-517.1307168821877
sba(i__main__
Gene
p4844
(dp4845
g13
F33834.635307641074
sba(i__main__
Gene
p4846
(dp4847
g13
F-220.83080886046889
sba(i__main__
Gene
p4848
(dp4849
g13
F323.37975062101123
sba(i__main__
Gene
p4850
(dp4851
g13
F-774.98110081090431
sba(i__main__
Gene
p4852
(dp4853
g13
F477.44227963928688
sba(i__main__
Gene
p4854
(dp4855
g13
F-527.42098812899383
sba(i__main__
Gene
p4856
(dp4857
g13
F539.90787114561863
sba(i__main__
Gene
p4858
(dp4859
g13
F-12.125594530810446
sba(i__main__
Gene
p4860
(dp4861
g13
F5.7851665608644298
sba(i__main__
Gene
p4862
(dp4863
g13
F-31.186759493319883
sba(i__main__
Gene
p4864
(dp4865
g13
F97.887102261105895
sba(i__main__
Gene
p4866
(dp4867
g13
F-53.135281549277295
sba(i__main__
Gene
p4868
(dp4869
g13
F53.386178085109584
sba(i__main__
Gene
p4870
(dp4871
g13
F-38348.63248452374
sba(i__main__
Gene
p4872
(dp4873
g13
F29649.958697891499
sba(i__main__
Gene
p4874
(dp4875
g13
F-9429.4699915623496
sba(i__main__
Gene
p4876
(dp4877
g13
F27490.580863746607
sba(i__main__
Gene
p4878
(dp4879
g13
F-32018.533989021915
sba(i__main__
Gene
p4880
(dp4881
g13
F31989.051734234738
sba(i__main__
Gene
p4882
(dp4883
g13
F-469.69009442215827
sba(i__main__
Gene
p4884
(dp4885
g13
F296.09383755518206
sba(i__main__
Gene
p4886
(dp4887
g13
F-71.821139778212569
sba(i__main__
Gene
p4888
(dp4889
g13
F590.56542519857771
sba(i__main__
Gene
p4890
(dp4891
g13
F-0.86267695322646887
sba(i__main__
Gene
p4892
(dp4893
g13
F887.41953310734573
sba(i__main__
Gene
p4894
(dp4895
g13
F-70.104768489705009
sba(i__main__
Gene
p4896
(dp4897
g13
F9.6928323044552336
sba(i__main__
Gene
p4898
(dp4899
g13
F-55.726904129324026
sba(i__main__
Gene
p4900
(dp4901
g13
F44.154429233791248
sba(i__main__
Gene
p4902
(dp4903
g13
F-74.450854904696712
sba(i__main__
Gene
p4904
(dp4905
g13
F63.474856088888586
sba(i__main__
Gene
p4906
(dp4907
g13
F-13990.272224679451
sba(i__main__
Gene
p4908
(dp4909
g13
F27982.641556719314
sba(i__main__
Gene
p4910
(dp4911
g13
F-44379.647028134597
sba(i__main__
Gene
p4912
(dp4913
g13
F20388.22364725011
sba(i__main__
Gene
p4914
(dp4915
g13
F-35660.25506761187
sba(i__main__
Gene
p4916
(dp4917
g13
F41264.341035184749
sba(i__main__
Gene
p4918
(dp4919
g13
F-282.57254375732691
sba(i__main__
Gene
p4920
(dp4921
g13
F168.77132667389506
sba(i__main__
Gene
p4922
(dp4923
g13
F-456.61678034675469
sba(i__main__
Gene
p4924
(dp4925
g13
F323.13816604994651
sba(i__main__
Gene
p4926
(dp4927
g13
F-641.05781471606497
sba(i__main__
Gene
p4928
(dp4929
g13
F684.92025205821176
sba(i__main__
Gene
p4930
(dp4931
g13
F-96.371448838497699
sba(i__main__
Gene
p4932
(dp4933
g13
F54.52853520481645
sba(i__main__
Gene
p4934
(dp4935
g13
F-4.7861189982714478
sba(i__main__
Gene
p4936
(dp4937
g13
F17.306439731579292
sba(i__main__
Gene
p4938
(dp4939
g13
F-34.510372465534616
sba(i__main__
Gene
p4940
(dp4941
g13
F7.865659230813737
sba(i__main__
Gene
p4942
(dp4943
g13
F-11409.062128662961
sba(i__main__
Gene
p4944
(dp4945
g13
F40798.733734019333
sba(i__main__
Gene
p4946
(dp4947
g13
F-23634.592203081807
sba(i__main__
Gene
p4948
(dp4949
g13
F13073.360121288209
sba(i__main__
Gene
p4950
(dp4951
g13
F-27493.869752818482
sba(i__main__
Gene
p4952
(dp4953
g13
F47899.291494310317
sba(i__main__
Gene
p4954
(dp4955
g13
F-991.71380269743577
sba(i__main__
Gene
p4956
(dp4957
g13
F537.21442186229945
sba(i__main__
Gene
p4958
(dp4959
g13
F-911.19013965711906
sba(i__main__
Gene
p4960
(dp4961
g13
F863.32655060525974
sba(i__main__
Gene
p4962
(dp4963
g13
F-17.58729633270741
sba(i__main__
Gene
p4964
(dp4965
g13
F998.53711458733517
sba(i__main__
Gene
p4966
(dp4967
g13
F-37.341612322521797
sba(i__main__
Gene
p4968
(dp4969
g13
F99.95605324532977
sba(i__main__
Gene
p4970
(dp4971
g13
F-70.866372671554927
sba(i__main__
Gene
p4972
(dp4973
g13
F91.180620507366058
sba(i__main__
Gene
p4974
(dp4975
g13
F-38.81982897660653
sba(i__main__
Gene
p4976
(dp4977
g13
F28.036515421186902
sba(i__main__
Gene
p4978
(dp4979
g13
F-21965.120647722044
sba(i__main__
Gene
p4980
(dp4981
g13
F47142.504814040956
sba(i__main__
Gene
p4982
(dp4983
g13
F-26958.758998075675
sba(i__main__
Gene
p4984
(dp4985
g13
F45462.840001318786
sba(i__main__
Gene
p4986
(dp4987
g13
F-34751.58426888242
sba(i__main__
Gene
p4988
(dp4989
g13
F12447.492697293887
sba(i__main__
Gene
p4990
(dp4991
g13
F-257.52208063108526
sba(i__main__
Gene
p4992
(dp4993
g13
F44.114250928418805
sba(i__main__
Gene
p4994
(dp4995
g13
F-886.06352941901901
sba(i__main__
Gene
p4996
(dp4997
g13
F638.45138822753358
sba(i__main__
Gene
p4998
(dp4999
g13
F-265.02346082948497
sba(i__main__
Gene
p5000
(dp5001
g13
F495.41724071866435
sba(i__main__
Gene
p5002
(dp5003
g13
F-23.206914371086739
sba(i__main__
Gene
p5004
(dp5005
g13
F7.5748969339527905
sba(i__main__
Gene
p5006
(dp5007
g13
F-35.545866147538703
sba(i__main__
Gene
p5008
(dp5009
g13
F43.684610820134509
sba(i__main__
Gene
p5010
(dp5011
g13
F-57.700448716064741
sba(i__main__
Gene
p5012
(dp5013
g13
F7.9686879641339026
sba(i__main__
Gene
p5014
(dp5015
g13
F-34885.128969915546
sba(i__main__
Gene
p5016
(dp5017
g13
F26105.523103601001
sba(i__main__
Gene
p5018
(dp5019
g13
F-41691.694064985611
sba(i__main__
Gene
p5020
(dp5021
g13
F23940.29868571461
sba(i__main__
Gene
p5022
(dp5023
g13
F-9037.1170155089349
sba(i__main__
Gene
p5024
(dp5025
g13
F35442.473927330546
sba(i__main__
Gene
p5026
(dp5027
g13
F-901.2505850537699
sba(i__main__
Gene
p5028
(dp5029
g13
F602.76249357626432
sba(i__main__
Gene
p5030
(dp5031
g13
F-604.80628638669691
sba(i__main__
Gene
p5032
(dp5033
g13
F710.15903380494331
sba(i__main__
Gene
p5034
(dp5035
g13
F-954.64339300919255
sba(i__main__
Gene
p5036
(dp5037
g13
F322.10049865509018
sba(i__main__
Gene
p5038
(dp5039
g13
F-38.402445376113128
sba(i__main__
Gene
p5040
(dp5041
g13
F69.895398580353543
sba(i__main__
Gene
p5042
(dp5043
g13
F-3.4700290671332397
sba(i__main__
Gene
p5044
(dp5045
g13
F33.947319800356212
sba(i__main__
Gene
p5046
(dp5047
g13
F-80.535255748665804
sba(i__main__
Gene
p5048
(dp5049
g13
F69.349277253487188
sba(i__main__
Gene
p5050
(dp5051
g13
F-24572.703579918354
sba(i__main__
Gene
p5052
(dp5053
g13
F32065.250161658605
sba(i__main__
Gene
p5054
(dp5055
g13
F-42542.085321352948
sba(i__main__
Gene
p5056
(dp5057
g13
F14417.210398176829
sba(i__main__
Gene
p5058
(dp5059
g13
F-31457.553812260729
sba(i__main__
Gene
p5060
(dp5061
g13
F1486.2428162733204
sba(i__main__
Gene
p5062
(dp5063
g13
F-436.01012820688686
sba(i__main__
Gene
p5064
(dp5065
g13
F767.85209101710302
sba(i__main__
Gene
p5066
(dp5067
g13
F-607.55893744185937
sba(i__main__
Gene
p5068
(dp5069
g13
F276.26255696124025
sba(i__main__
Gene
p5070
(dp5071
g13
F-673.240045690324
sba(i__main__
Gene
p5072
(dp5073
g13
F622.65892306219939
sba(i__main__
Gene
p5074
(dp5075
g13
F-29.630878729013588
sba(i__main__
Gene
p5076
(dp5077
g13
F33.478014964327983
sba(i__main__
Gene
p5078
(dp5079
g13
F-83.340637736267297
sba(i__main__
Gene
p5080
(dp5081
g13
F60.531296076637219
sba(i__main__
Gene
p5082
(dp5083
g13
F-40.785203267153506
sba(i__main__
Gene
p5084
(dp5085
g13
F7.8611347855992104
sba(i__main__
Gene
p5086
(dp5087
g13
F-12408.998663924933
sba(i__main__
Gene
p5088
(dp5089
g13
F45916.856129969339
sba(i__main__
Gene
p5090
(dp5091
g13
F-22521.231008710954
sba(i__main__
Gene
p5092
(dp5093
g13
F27275.982765563072
sba(i__main__
Gene
p5094
(dp5095
g13
F-39573.850489740835
sba(i__main__
Gene
p5096
(dp5097
g13
F27033.546323144546
sba(i__main__
Gene
p5098
(dp5099
g13
F-365.68903247356286
sba(i__main__
Gene
p5100
(dp5101
g13
F79.298803664207725
sba(i__main__
Gene
p5102
(dp5103
g13
F-666.41707876055034
sba(i__main__
Gene
p5104
(dp5105
g13
F297.53166449619528
sba(i__main__
Gene
p5106
(dp5107
g13
F-226.95306934073506
sba(i__main__
Gene
p5108
(dp5109
g13
F248.81750155012418
sba(i__main__
Gene
p5110
(dp5111
g13
F-56.086334832750438
sba(i__main__
Gene
p5112
(dp5113
g13
F26.257177413665445
sba(i__main__
Gene
p5114
(dp5115
g13
F-75.883866604692969
sba(i__main__
Gene
p5116
(dp5117
g13
F15.578815168056504
sba(i__main__
Gene
p5118
(dp5119
g13
F-13.447416773278235
sba(i__main__
Gene
p5120
(dp5121
g13
F27.138379774042519
sba(i__main__
Gene
p5122
(dp5123
g13
F-20994.33757529602
sba(i__main__
Gene
p5124
(dp5125
g13
F5058.4240664234057
sba(i__main__
Gene
p5126
(dp5127
g13
F-40746.050397561885
sba(i__main__
Gene
p5128
(dp5129
g13
F20635.890688196498
sba(i__main__
Gene
p5130
(dp5131
g13
F-35908.467122848589
sba(i__main__
Gene
p5132
(dp5133
g13
F20598.538837833192
sba(i__main__
Gene
p5134
(dp5135
g13
F-816.07541613788862
sba(i__main__
Gene
p5136
(dp5137
g13
F599.41976571956639
sba(i__main__
Gene
p5138
(dp5139
g13
F-189.00450270914575
sba(i__main__
Gene
p5140
(dp5141
g13
F873.29413303439208
sba(i__main__
Gene
p5142
(dp5143
g13
F-191.34306992907625
sba(i__main__
Gene
p5144
(dp5145
g13
F761.54269886164695
sba(i__main__
Gene
p5146
(dp5147
g13
F-63.828848306839433
sba(i__main__
Gene
p5148
(dp5149
g13
F17.326217412105937
sba(i__main__
Gene
p5150
(dp5151
g13
F-33.926298462413001
sba(i__main__
Gene
p5152
(dp5153
g13
F64.991783475415872
sba(i__main__
Gene
p5154
(dp5155
g13
F-13.996644181239546
sba(i__main__
Gene
p5156
(dp5157
g13
F1.3957425186971961
sba(i__main__
Gene
p5158
(dp5159
g13
F-10450.455059719134
sba(i__main__
Gene
p5160
(dp5161
g13
F26097.618792252637
sba(i__main__
Gene
p5162
(dp5163
g13
F-4276.0642354302836
sba(i__main__
Gene
p5164
(dp5165
g13
F26538.30766255768
sba(i__main__
Gene
p5166
(dp5167
g13
F-1539.842649023718
sba(i__main__
Gene
p5168
(dp5169
g13
F44902.577409179627
sba(i__main__
Gene
p5170
(dp5171
g13
F-968.91183476232663
sba(i__main__
Gene
p5172
(dp5173
g13
F981.51357740779076
sba(i__main__
Gene
p5174
(dp5175
g13
F-422.61470912205766
sba(i__main__
Gene
p5176
(dp5177
g13
F723.81295154324027
sba(i__main__
Gene
p5178
(dp5179
g13
F-679.02677606825011
sba(i__main__
Gene
p5180
(dp5181
g13
F952.01665369649345
sba(i__main__
Gene
p5182
(dp5183
g13
F-74.27544009255729
sba(i__main__
Gene
p5184
(dp5185
g13
F0.58640752631023974
sba(i__main__
Gene
p5186
(dp5187
g13
F-75.677501700424727
sba(i__main__
Gene
p5188
(dp5189
g13
F49.425750965930057
sba(i__main__
Gene
p5190
(dp5191
g13
F-74.069929270371048
sba(i__main__
Gene
p5192
(dp5193
g13
F85.660633729971281
sba(i__main__
Gene
p5194
(dp5195
g13
F-25015.206136260651
sba(i__main__
Gene
p5196
(dp5197
g13
F9371.226113065637
sba(i__main__
Gene
p5198
(dp5199
g13
F-39979.342877252391
sba(i__main__
Gene
p5200
(dp5201
g13
F45842.800606713259
sba(i__main__
Gene
p5202
(dp5203
g13
F-17291.252796072971
sba(i__main__
Gene
p5204
(dp5205
g13
F4850.4021907373972
sba(i__main__
Gene
p5206
(dp5207
g13
F-106.45570965097545
sba(i__main__
Gene
p5208
(dp5209
g13
F50.238026559219939
sba(i__main__
Gene
p5210
(dp5211
g13
F-237.71116618812789
sba(i__main__
Gene
p5212
(dp5213
g13
F692.75881642167508
sba(i__main__
Gene
p5214
(dp5215
g13
F-196.04199947753887
sba(i__main__
Gene
p5216
(dp5217
g13
F357.85141843375254
sba(i__main__
Gene
p5218
(dp5219
g13
F-80.995209206406912
sba(i__main__
Gene
p5220
(dp5221
g13
F38.172584096617832
sba(i__main__
Gene
p5222
(dp5223
g13
F-11.181440329160466
sba(i__main__
Gene
p5224
(dp5225
g13
F3.1888245210706989
sba(i__main__
Gene
p5226
(dp5227
g13
F-66.378053076662212
sba(i__main__
Gene
p5228
(dp5229
g13
F61.617302857879118
sba(i__main__
Gene
p5230
(dp5231
g13
F-38707.230254444366
sba(i__main__
Gene
p5232
(dp5233
g13
F40835.284358830097
sba(i__main__
Gene
p5234
(dp5235
g13
F-42535.613637645321
sba(i__main__
Gene
p5236
(dp5237
g13
F48025.768822224381
sba(i__main__
Gene
p5238
(dp5239
g13
F-17818.191118562765
sba(i__main__
Gene
p5240
(dp5241
g13
F21634.401189740678
sba(i__main__
Gene
p5242
(dp5243
g13
F-626.23206193954411
sba(i__main__
Gene
p5244
(dp5245
g13
F265.84553710517912
sba(i__main__
Gene
p5246
(dp5247
g13
F-864.77709269046488
sba(i__main__
Gene
p5248
(dp5249
g13
F514.66799666930558
sba(i__main__
Gene
p5250
(dp5251
g13
F-933.37991090955495
sba(i__main__
Gene
p5252
(dp5253
g13
F397.05255238471415
sba(i__main__
Gene
p5254
(dp5255
g13
F-43.00020890245333
sba(i__main__
Gene
p5256
(dp5257
g13
F1.8947083275572818
sba(i__main__
Gene
p5258
(dp5259
g13
F-27.005413921185877
sba(i__main__
Gene
p5260
(dp5261
g13
F92.28864823316178
sba(i__main__
Gene
p5262
(dp5263
g13
F-44.281543508158151
sba(i__main__
Gene
p5264
(dp5265
g13
F21.588320170397569
sbatRp5266
(dp5267
g446
g7
(g447
g448
NtRp5268
(dp5269
g451
(F524.79999999999995
tp5270
sbsbag7
(g8
g9
(lp5271
(i__main__
Gene
p5272
(dp5273
g13
F-23684.56924213075
sba(i__main__
Gene
p5274
(dp5275
g13
F34627.843303455564
sba(i__main__
Gene
p5276
(dp5277
g13
F-12089.926725257457
sba(i__main__
Gene
p5278
(dp5279
g13
F2757.2124808553335
sba(i__main__
Gene
p5280
(dp5281
g13
F-18409.447086240099
sba(i__main__
Gene
p5282
(dp5283
g13
F28508.823055434917
sba(i__main__
Gene
p5284
(dp5285
g13
F-156.71415576535753
sba(i__main__
Gene
p5286
(dp5287
g13
F494.67262958765434
sba(i__main__
Gene
p5288
(dp5289
g13
F-250.57232416690624
sba(i__main__
Gene
p5290
(dp5291
g13
F997.49904534327561
sba(i__main__
Gene
p5292
(dp5293
g13
F-455.24504918973457
sba(i__main__
Gene
p5294
(dp5295
g13
F108.12480526209345
sba(i__main__
Gene
p5296
(dp5297
g13
F-0.0078952623361203678
sba(i__main__
Gene
p5298
(dp5299
g13
F52.615861506821751
sba(i__main__
Gene
p5300
(dp5301
g13
F-33.51671867940459
sba(i__main__
Gene
p5302
(dp5303
g13
F53.727508568433734
sba(i__main__
Gene
p5304
(dp5305
g13
F-41.333279708753068
sba(i__main__
Gene
p5306
(dp5307
g13
F45.360165094457429
sba(i__main__
Gene
p5308
(dp5309
g13
F-35821.193806053758
sba(i__main__
Gene
p5310
(dp5311
g13
F75.421113491093124
sba(i__main__
Gene
p5312
(dp5313
g13
F-22893.070040596387
sba(i__main__
Gene
p5314
(dp5315
g13
F47770.587250714998
sba(i__main__
Gene
p5316
(dp5317
g13
F-5927.4372223592363
sba(i__main__
Gene
p5318
(dp5319
g13
F8713.6534270478205
sba(i__main__
Gene
p5320
(dp5321
g13
F-737.6403833849738
sba(i__main__
Gene
p5322
(dp5323
g13
F38.575676563677
sba(i__main__
Gene
p5324
(dp5325
g13
F-279.58536147821451
sba(i__main__
Gene
p5326
(dp5327
g13
F817.34906165834195
sba(i__main__
Gene
p5328
(dp5329
g13
F-381.91350800125622
sba(i__main__
Gene
p5330
(dp5331
g13
F823.93125157349289
sba(i__main__
Gene
p5332
(dp5333
g13
F-11.060294280598242
sba(i__main__
Gene
p5334
(dp5335
g13
F45.765978771746553
sba(i__main__
Gene
p5336
(dp5337
g13
F-36.612097865188787
sba(i__main__
Gene
p5338
(dp5339
g13
F88.357049249415638
sba(i__main__
Gene
p5340
(dp5341
g13
F-98.558595176044136
sba(i__main__
Gene
p5342
(dp5343
g13
F55.102136305290649
sba(i__main__
Gene
p5344
(dp5345
g13
F-11282.426816529114
sba(i__main__
Gene
p5346
(dp5347
g13
F27912.275937743289
sba(i__main__
Gene
p5348
(dp5349
g13
F-4440.8060543210813
sba(i__main__
Gene
p5350
(dp5351
g13
F38506.535711711724
sba(i__main__
Gene
p5352
(dp5353
g13
F-27086.757125642664
sba(i__main__
Gene
p5354
(dp5355
g13
F26367.059141867023
sba(i__main__
Gene
p5356
(dp5357
g13
F-693.58764789134239
sba(i__main__
Gene
p5358
(dp5359
g13
F45.056239229620211
sba(i__main__
Gene
p5360
(dp5361
g13
F-779.37017948467746
sba(i__main__
Gene
p5362
(dp5363
g13
F150.47376835976522
sba(i__main__
Gene
p5364
(dp5365
g13
F-581.50192522211114
sba(i__main__
Gene
p5366
(dp5367
g13
F282.58261352131819
sba(i__main__
Gene
p5368
(dp5369
g13
F-45.521625601774737
sba(i__main__
Gene
p5370
(dp5371
g13
F72.147290032102845
sba(i__main__
Gene
p5372
(dp5373
g13
F-10.157965240845598
sba(i__main__
Gene
p5374
(dp5375
g13
F82.35466778005123
sba(i__main__
Gene
p5376
(dp5377
g13
F-5.3787654200117601
sba(i__main__
Gene
p5378
(dp5379
g13
F74.461238214605686
sba(i__main__
Gene
p5380
(dp5381
g13
F-32191.8895622243
sba(i__main__
Gene
p5382
(dp5383
g13
F25378.996721310566
sba(i__main__
Gene
p5384
(dp5385
g13
F-11556.856049720671
sba(i__main__
Gene
p5386
(dp5387
g13
F45557.842108196637
sba(i__main__
Gene
p5388
(dp5389
g13
F-22213.174373303093
sba(i__main__
Gene
p5390
(dp5391
g13
F22804.363442944265
sba(i__main__
Gene
p5392
(dp5393
g13
F-685.95616864195154
sba(i__main__
Gene
p5394
(dp5395
g13
F596.70473362752216
sba(i__main__
Gene
p5396
(dp5397
g13
F-83.426065351963189
sba(i__main__
Gene
p5398
(dp5399
g13
F563.34835944207782
sba(i__main__
Gene
p5400
(dp5401
g13
F-477.37544140864281
sba(i__main__
Gene
p5402
(dp5403
g13
F73.017517551358765
sba(i__main__
Gene
p5404
(dp5405
g13
F-23.885273260633326
sba(i__main__
Gene
p5406
(dp5407
g13
F84.456599764890157
sba(i__main__
Gene
p5408
(dp5409
g13
F-53.167964817214475
sba(i__main__
Gene
p5410
(dp5411
g13
F26.184158971566617
sba(i__main__
Gene
p5412
(dp5413
g13
F-66.695434529140471
sba(i__main__
Gene
p5414
(dp5415
g13
F23.198620160500795
sba(i__main__
Gene
p5416
(dp5417
g13
F-17395.173807908417
sba(i__main__
Gene
p5418
(dp5419
g13
F20974.408718128489
sba(i__main__
Gene
p5420
(dp5421
g13
F-23402.856854280071
sba(i__main__
Gene
p5422
(dp5423
g13
F12666.095554853027
sba(i__main__
Gene
p5424
(dp5425
g13
F-9502.429137285777
sba(i__main__
Gene
p5426
(dp5427
g13
F30846.892893855926
sba(i__main__
Gene
p5428
(dp5429
g13
F-390.29851526581126
sba(i__main__
Gene
p5430
(dp5431
g13
F17.459997237698978
sba(i__main__
Gene
p5432
(dp5433
g13
F-186.44447976519746
sba(i__main__
Gene
p5434
(dp5435
g13
F966.79652575444868
sba(i__main__
Gene
p5436
(dp5437
g13
F-107.43511080412725
sba(i__main__
Gene
p5438
(dp5439
g13
F248.40209735323981
sba(i__main__
Gene
p5440
(dp5441
g13
F-65.559072390340219
sba(i__main__
Gene
p5442
(dp5443
g13
F42.394738532843782
sba(i__main__
Gene
p5444
(dp5445
g13
F-27.848995068186682
sba(i__main__
Gene
p5446
(dp5447
g13
F12.124508435447856
sba(i__main__
Gene
p5448
(dp5449
g13
F-30.57122692755226
sba(i__main__
Gene
p5450
(dp5451
g13
F35.646456477327327
sba(i__main__
Gene
p5452
(dp5453
g13
F-10087.53991499827
sba(i__main__
Gene
p5454
(dp5455
g13
F47477.206987053636
sba(i__main__
Gene
p5456
(dp5457
g13
F-47457.372915834094
sba(i__main__
Gene
p5458
(dp5459
g13
F43838.406749317495
sba(i__main__
Gene
p5460
(dp5461
g13
F-44127.914648078739
sba(i__main__
Gene
p5462
(dp5463
g13
F32981.951251438397
sba(i__main__
Gene
p5464
(dp5465
g13
F-54.782888798052454
sba(i__main__
Gene
p5466
(dp5467
g13
F721.71841744274343
sba(i__main__
Gene
p5468
(dp5469
g13
F-936.67386274841056
sba(i__main__
Gene
p5470
(dp5471
g13
F858.99450577701657
sba(i__main__
Gene
p5472
(dp5473
g13
F-37.172680189758239
sba(i__main__
Gene
p5474
(dp5475
g13
F708.35679113604124
sba(i__main__
Gene
p5476
(dp5477
g13
F-83.192727010050476
sba(i__main__
Gene
p5478
(dp5479
g13
F41.705336088987977
sba(i__main__
Gene
p5480
(dp5481
g13
F-23.330111837207397
sba(i__main__
Gene
p5482
(dp5483
g13
F81.60617440803783
sba(i__main__
Gene
p5484
(dp5485
g13
F-82.001156962365741
sba(i__main__
Gene
p5486
(dp5487
g13
F70.757043792359156
sba(i__main__
Gene
p5488
(dp5489
g13
F-4038.0211970388482
sba(i__main__
Gene
p5490
(dp5491
g13
F5861.9678893832861
sba(i__main__
Gene
p5492
(dp5493
g13
F-47766.887617761371
sba(i__main__
Gene
p5494
(dp5495
g13
F13168.259299726864
sba(i__main__
Gene
p5496
(dp5497
g13
F-29850.589288741132
sba(i__main__
Gene
p5498
(dp5499
g13
F8357.6864231843574
sba(i__main__
Gene
p5500
(dp5501
g13
F-998.54405659818985
sba(i__main__
Gene
p5502
(dp5503
g13
F337.0040064786354
sba(i__main__
Gene
p5504
(dp5505
g13
F-94.138683508036934
sba(i__main__
Gene
p5506
(dp5507
g13
F224.87522586605701
sba(i__main__
Gene
p5508
(dp5509
g13
F-11.889005180017193
sba(i__main__
Gene
p5510
(dp5511
g13
F909.9893092869678
sba(i__main__
Gene
p5512
(dp5513
g13
F-73.998376333779873
sba(i__main__
Gene
p5514
(dp5515
g13
F8.2294135374515243
sba(i__main__
Gene
p5516
(dp5517
g13
F-64.971503208057612
sba(i__main__
Gene
p5518
(dp5519
g13
F64.789261832836161
sba(i__main__
Gene
p5520
(dp5521
g13
F-36.493189421785068
sba(i__main__
Gene
p5522
(dp5523
g13
F3.0236143369100299
sba(i__main__
Gene
p5524
(dp5525
g13
F-9425.9197017566403
sba(i__main__
Gene
p5526
(dp5527
g13
F9089.7917486430069
sba(i__main__
Gene
p5528
(dp5529
g13
F-17679.397088195466
sba(i__main__
Gene
p5530
(dp5531
g13
F9387.3832371859771
sba(i__main__
Gene
p5532
(dp5533
g13
F-7297.8999273987356
sba(i__main__
Gene
p5534
(dp5535
g13
F23524.179287341045
sba(i__main__
Gene
p5536
(dp5537
g13
F-861.4118951217215
sba(i__main__
Gene
p5538
(dp5539
g13
F516.0732947923434
sba(i__main__
Gene
p5540
(dp5541
g13
F-203.1184783987328
sba(i__main__
Gene
p5542
(dp5543
g13
F221.90381210282595
sba(i__main__
Gene
p5544
(dp5545
g13
F-206.22832131713926
sba(i__main__
Gene
p5546
(dp5547
g13
F982.36427676807466
sba(i__main__
Gene
p5548
(dp5549
g13
F-41.078626768206718
sba(i__main__
Gene
p5550
(dp5551
g13
F50.961914899259554
sba(i__main__
Gene
p5552
(dp5553
g13
F-30.464942630915715
sba(i__main__
Gene
p5554
(dp5555
g13
F39.397812957633668
sba(i__main__
Gene
p5556
(dp5557
g13
F-52.646279735593659
sba(i__main__
Gene
p5558
(dp5559
g13
F38.702676741521145
sba(i__main__
Gene
p5560
(dp5561
g13
F-31860.167188009276
sba(i__main__
Gene
p5562
(dp5563
g13
F15798.975757682954
sba(i__main__
Gene
p5564
(dp5565
g13
F-16346.320468103295
sba(i__main__
Gene
p5566
(dp5567
g13
F6325.6180364373304
sba(i__main__
Gene
p5568
(dp5569
g13
F-20343.800648497592
sba(i__main__
Gene
p5570
(dp5571
g13
F2864.6418580008335
sba(i__main__
Gene
p5572
(dp5573
g13
F-885.25687796657917
sba(i__main__
Gene
p5574
(dp5575
g13
F581.38656995531562
sba(i__main__
Gene
p5576
(dp5577
g13
F-633.31843514548655
sba(i__main__
Gene
p5578
(dp5579
g13
F843.22263399912981
sba(i__main__
Gene
p5580
(dp5581
g13
F-680.30294131889696
sba(i__main__
Gene
p5582
(dp5583
g13
F385.30012894652123
sba(i__main__
Gene
p5584
(dp5585
g13
F-94.603254620943915
sba(i__main__
Gene
p5586
(dp5587
g13
F90.546517125539339
sba(i__main__
Gene
p5588
(dp5589
g13
F-54.358710647274158
sba(i__main__
Gene
p5590
(dp5591
g13
F34.663985374688302
sba(i__main__
Gene
p5592
(dp5593
g13
F-58.959478348868601
sba(i__main__
Gene
p5594
(dp5595
g13
F74.383309343680395
sba(i__main__
Gene
p5596
(dp5597
g13
F-45885.0891315443
sba(i__main__
Gene
p5598
(dp5599
g13
F33350.369466038559
sba(i__main__
Gene
p5600
(dp5601
g13
F-6949.3555314631158
sba(i__main__
Gene
p5602
(dp5603
g13
F7286.4779481394326
sba(i__main__
Gene
p5604
(dp5605
g13
F-37058.275246502635
sba(i__main__
Gene
p5606
(dp5607
g13
F7192.0711284722893
sba(i__main__
Gene
p5608
(dp5609
g13
F-314.51940956362398
sba(i__main__
Gene
p5610
(dp5611
g13
F253.81473500650409
sba(i__main__
Gene
p5612
(dp5613
g13
F-202.76246315709466
sba(i__main__
Gene
p5614
(dp5615
g13
F419.82137451571413
sba(i__main__
Gene
p5616
(dp5617
g13
F-27.1175231273902
sba(i__main__
Gene
p5618
(dp5619
g13
F341.11730668032624
sba(i__main__
Gene
p5620
(dp5621
g13
F-92.155498787441729
sba(i__main__
Gene
p5622
(dp5623
g13
F82.405454294967711
sba(i__main__
Gene
p5624
(dp5625
g13
F-25.127724844618854
sba(i__main__
Gene
p5626
(dp5627
g13
F85.602329126793791
sba(i__main__
Gene
p5628
(dp5629
g13
F-15.636344504502176
sba(i__main__
Gene
p5630
(dp5631
g13
F80.764465422548525
sba(i__main__
Gene
p5632
(dp5633
g13
F-15192.809539885733
sba(i__main__
Gene
p5634
(dp5635
g13
F2780.3632471960059
sba(i__main__
Gene
p5636
(dp5637
g13
F-44741.20022495537
sba(i__main__
Gene
p5638
(dp5639
g13
F26830.246523036905
sba(i__main__
Gene
p5640
(dp5641
g13
F-18467.871506519969
sba(i__main__
Gene
p5642
(dp5643
g13
F26847.999938807658
sba(i__main__
Gene
p5644
(dp5645
g13
F-919.37994304853203
sba(i__main__
Gene
p5646
(dp5647
g13
F586.89929204425209
sba(i__main__
Gene
p5648
(dp5649
g13
F-755.45591135652285
sba(i__main__
Gene
p5650
(dp5651
g13
F839.01597591149221
sba(i__main__
Gene
p5652
(dp5653
g13
F-524.51318890023254
sba(i__main__
Gene
p5654
(dp5655
g13
F698.07306732838799
sba(i__main__
Gene
p5656
(dp5657
g13
F-22.099413334499843
sba(i__main__
Gene
p5658
(dp5659
g13
F68.256887245594541
sba(i__main__
Gene
p5660
(dp5661
g13
F-77.738046816077329
sba(i__main__
Gene
p5662
(dp5663
g13
F12.437082156292833
sba(i__main__
Gene
p5664
(dp5665
g13
F-98.885196145344693
sba(i__main__
Gene
p5666
(dp5667
g13
F8.8322414080897147
sba(i__main__
Gene
p5668
(dp5669
g13
F-19639.835715740679
sba(i__main__
Gene
p5670
(dp5671
g13
F1054.5327701085769
sba(i__main__
Gene
p5672
(dp5673
g13
F-40121.519635267985
sba(i__main__
Gene
p5674
(dp5675
g13
F33999.243749043861
sba(i__main__
Gene
p5676
(dp5677
g13
F-45078.474836052243
sba(i__main__
Gene
p5678
(dp5679
g13
F22433.286906588179
sba(i__main__
Gene
p5680
(dp5681
g13
F-932.88874487170779
sba(i__main__
Gene
p5682
(dp5683
g13
F220.45722554051406
sba(i__main__
Gene
p5684
(dp5685
g13
F-933.32545510109071
sba(i__main__
Gene
p5686
(dp5687
g13
F588.39661541646421
sba(i__main__
Gene
p5688
(dp5689
g13
F-134.71577842621343
sba(i__main__
Gene
p5690
(dp5691
g13
F943.83331401125679
sba(i__main__
Gene
p5692
(dp5693
g13
F-17.806144101217143
sba(i__main__
Gene
p5694
(dp5695
g13
F8.5178768170656163
sba(i__main__
Gene
p5696
(dp5697
g13
F-60.816740906341217
sba(i__main__
Gene
p5698
(dp5699
g13
F93.982525352377237
sba(i__main__
Gene
p5700
(dp5701
g13
F-26.719549412746744
sba(i__main__
Gene
p5702
(dp5703
g13
F14.362627578894694
sbatRp5704
(dp5705
g446
g7
(g447
g448
NtRp5706
(dp5707
g451
(F503.19999999999999
tp5708
sbsbag7
(g8
g9
(lp5709
(i__main__
Gene
p5710
(dp5711
g13
F-12020.739882879199
sba(i__main__
Gene
p5712
(dp5713
g13
F4271.1124625895927
sba(i__main__
Gene
p5714
(dp5715
g13
F-7213.2263515106824
sba(i__main__
Gene
p5716
(dp5717
g13
F4022.2079023801539
sba(i__main__
Gene
p5718
(dp5719
g13
F-19004.694277658793
sba(i__main__
Gene
p5720
(dp5721
g13
F37335.854818372114
sba(i__main__
Gene
p5722
(dp5723
g13
F-358.4599422582736
sba(i__main__
Gene
p5724
(dp5725
g13
F896.98388970386532
sba(i__main__
Gene
p5726
(dp5727
g13
F-313.13085953773339
sba(i__main__
Gene
p5728
(dp5729
g13
F933.25940782847442
sba(i__main__
Gene
p5730
(dp5731
g13
F-994.82633168415668
sba(i__main__
Gene
p5732
(dp5733
g13
F641.02196141392778
sba(i__main__
Gene
p5734
(dp5735
g13
F-54.316037888008807
sba(i__main__
Gene
p5736
(dp5737
g13
F41.974769599802727
sba(i__main__
Gene
p5738
(dp5739
g13
F-6.1400139048480895
sba(i__main__
Gene
p5740
(dp5741
g13
F69.463104792712898
sba(i__main__
Gene
p5742
(dp5743
g13
F-39.499919907997104
sba(i__main__
Gene
p5744
(dp5745
g13
F15.22503264430377
sba(i__main__
Gene
p5746
(dp5747
g13
F-40574.954580341888
sba(i__main__
Gene
p5748
(dp5749
g13
F16269.802448182389
sba(i__main__
Gene
p5750
(dp5751
g13
F-47602.189798698077
sba(i__main__
Gene
p5752
(dp5753
g13
F36397.69875379392
sba(i__main__
Gene
p5754
(dp5755
g13
F-6083.2519745113605
sba(i__main__
Gene
p5756
(dp5757
g13
F46856.330800289026
sba(i__main__
Gene
p5758
(dp5759
g13
F-803.50342325737086
sba(i__main__
Gene
p5760
(dp5761
g13
F918.72320285648118
sba(i__main__
Gene
p5762
(dp5763
g13
F-834.5906326158497
sba(i__main__
Gene
p5764
(dp5765
g13
F281.79705892640419
sba(i__main__
Gene
p5766
(dp5767
g13
F-646.45842378781401
sba(i__main__
Gene
p5768
(dp5769
g13
F447.42210151916117
sba(i__main__
Gene
p5770
(dp5771
g13
F-24.488399131394914
sba(i__main__
Gene
p5772
(dp5773
g13
F10.266112008500405
sba(i__main__
Gene
p5774
(dp5775
g13
F-31.866417090074435
sba(i__main__
Gene
p5776
(dp5777
g13
F2.6905926051659645
sba(i__main__
Gene
p5778
(dp5779
g13
F-99.458016975403623
sba(i__main__
Gene
p5780
(dp5781
g13
F28.27704301469144
sba(i__main__
Gene
p5782
(dp5783
g13
F-12487.288721199147
sba(i__main__
Gene
p5784
(dp5785
g13
F2739.4954555143227
sba(i__main__
Gene
p5786
(dp5787
g13
F-38890.09575921388
sba(i__main__
Gene
p5788
(dp5789
g13
F21404.542772085042
sba(i__main__
Gene
p5790
(dp5791
g13
F-14733.795501953631
sba(i__main__
Gene
p5792
(dp5793
g13
F28593.821943535335
sba(i__main__
Gene
p5794
(dp5795
g13
F-440.74201578066049
sba(i__main__
Gene
p5796
(dp5797
g13
F302.58552373695068
sba(i__main__
Gene
p5798
(dp5799
g13
F-793.26692206794951
sba(i__main__
Gene
p5800
(dp5801
g13
F7.2736625664752141
sba(i__main__
Gene
p5802
(dp5803
g13
F-692.09040344646019
sba(i__main__
Gene
p5804
(dp5805
g13
F190.83715965110005
sba(i__main__
Gene
p5806
(dp5807
g13
F-22.395897221781041
sba(i__main__
Gene
p5808
(dp5809
g13
F0.018850623706601066
sba(i__main__
Gene
p5810
(dp5811
g13
F-96.396575561615236
sba(i__main__
Gene
p5812
(dp5813
g13
F48.400294555505951
sba(i__main__
Gene
p5814
(dp5815
g13
F-71.912383209801405
sba(i__main__
Gene
p5816
(dp5817
g13
F35.27199109832074
sba(i__main__
Gene
p5818
(dp5819
g13
F-3896.8598859084013
sba(i__main__
Gene
p5820
(dp5821
g13
F44210.33132011992
sba(i__main__
Gene
p5822
(dp5823
g13
F-29666.139042208364
sba(i__main__
Gene
p5824
(dp5825
g13
F29820.477510744549
sba(i__main__
Gene
p5826
(dp5827
g13
F-8946.1432888655327
sba(i__main__
Gene
p5828
(dp5829
g13
F30215.939131979379
sba(i__main__
Gene
p5830
(dp5831
g13
F-173.29492239351055
sba(i__main__
Gene
p5832
(dp5833
g13
F367.08310577542488
sba(i__main__
Gene
p5834
(dp5835
g13
F-353.28072340742801
sba(i__main__
Gene
p5836
(dp5837
g13
F783.51596288227677
sba(i__main__
Gene
p5838
(dp5839
g13
F-818.16673515469824
sba(i__main__
Gene
p5840
(dp5841
g13
F87.10251448502882
sba(i__main__
Gene
p5842
(dp5843
g13
F-75.852900389157952
sba(i__main__
Gene
p5844
(dp5845
g13
F16.511369414231048
sba(i__main__
Gene
p5846
(dp5847
g13
F-99.256188081893399
sba(i__main__
Gene
p5848
(dp5849
g13
F33.229225707272256
sba(i__main__
Gene
p5850
(dp5851
g13
F-56.208695556079213
sba(i__main__
Gene
p5852
(dp5853
g13
F2.2090902097157583
sba(i__main__
Gene
p5854
(dp5855
g13
F-3004.2815626854281
sba(i__main__
Gene
p5856
(dp5857
g13
F30461.322306905378
sba(i__main__
Gene
p5858
(dp5859
g13
F-4178.331997950685
sba(i__main__
Gene
p5860
(dp5861
g13
F32306.852740872921
sba(i__main__
Gene
p5862
(dp5863
g13
F-24849.156381830016
sba(i__main__
Gene
p5864
(dp5865
g13
F16880.712499272271
sba(i__main__
Gene
p5866
(dp5867
g13
F-133.9179621664947
sba(i__main__
Gene
p5868
(dp5869
g13
F79.203000046925709
sba(i__main__
Gene
p5870
(dp5871
g13
F-651.57422849618649
sba(i__main__
Gene
p5872
(dp5873
g13
F478.10673536724238
sba(i__main__
Gene
p5874
(dp5875
g13
F-396.64049404054583
sba(i__main__
Gene
p5876
(dp5877
g13
F20.392805083085385
sba(i__main__
Gene
p5878
(dp5879
g13
F-35.568587987466401
sba(i__main__
Gene
p5880
(dp5881
g13
F24.36487486090223
sba(i__main__
Gene
p5882
(dp5883
g13
F-11.697751961738192
sba(i__main__
Gene
p5884
(dp5885
g13
F75.500955612938142
sba(i__main__
Gene
p5886
(dp5887
g13
F-47.946228819145311
sba(i__main__
Gene
p5888
(dp5889
g13
F83.680213999076869
sba(i__main__
Gene
p5890
(dp5891
g13
F-43468.146234092987
sba(i__main__
Gene
p5892
(dp5893
g13
F27955.876174446385
sba(i__main__
Gene
p5894
(dp5895
g13
F-24488.399558113255
sba(i__main__
Gene
p5896
(dp5897
g13
F42500.041084067256
sba(i__main__
Gene
p5898
(dp5899
g13
F-10180.541145560717
sba(i__main__
Gene
p5900
(dp5901
g13
F46525.485853484584
sba(i__main__
Gene
p5902
(dp5903
g13
F-568.19560777661468
sba(i__main__
Gene
p5904
(dp5905
g13
F352.52028080666565
sba(i__main__
Gene
p5906
(dp5907
g13
F-362.53453985688623
sba(i__main__
Gene
p5908
(dp5909
g13
F417.22139026234782
sba(i__main__
Gene
p5910
(dp5911
g13
F-323.44523331520156
sba(i__main__
Gene
p5912
(dp5913
g13
F10.97377154400203
sba(i__main__
Gene
p5914
(dp5915
g13
F-91.424097710038239
sba(i__main__
Gene
p5916
(dp5917
g13
F81.72034142224372
sba(i__main__
Gene
p5918
(dp5919
g13
F-0.92960219579771319
sba(i__main__
Gene
p5920
(dp5921
g13
F60.761871451958761
sba(i__main__
Gene
p5922
(dp5923
g13
F-11.430259864756721
sba(i__main__
Gene
p5924
(dp5925
g13
F11.115595374047672
sba(i__main__
Gene
p5926
(dp5927
g13
F-27959.79396432931
sba(i__main__
Gene
p5928
(dp5929
g13
F32710.313367220308
sba(i__main__
Gene
p5930
(dp5931
g13
F-23241.908042853796
sba(i__main__
Gene
p5932
(dp5933
g13
F45413.68662610004
sba(i__main__
Gene
p5934
(dp5935
g13
F-47060.908982468034
sba(i__main__
Gene
p5936
(dp5937
g13
F39400.327943890712
sba(i__main__
Gene
p5938
(dp5939
g13
F-512.64699492001682
sba(i__main__
Gene
p5940
(dp5941
g13
F780.52321050793319
sba(i__main__
Gene
p5942
(dp5943
g13
F-262.13615907858889
sba(i__main__
Gene
p5944
(dp5945
g13
F499.32856513920387
sba(i__main__
Gene
p5946
(dp5947
g13
F-358.30204183787498
sba(i__main__
Gene
p5948
(dp5949
g13
F608.04988726954105
sba(i__main__
Gene
p5950
(dp5951
g13
F-65.543906667861478
sba(i__main__
Gene
p5952
(dp5953
g13
F58.682419614151115
sba(i__main__
Gene
p5954
(dp5955
g13
F-33.586016292012886
sba(i__main__
Gene
p5956
(dp5957
g13
F30.851281948314657
sba(i__main__
Gene
p5958
(dp5959
g13
F-24.324720091595111
sba(i__main__
Gene
p5960
(dp5961
g13
F96.014235797231692
sba(i__main__
Gene
p5962
(dp5963
g13
F-37623.391410676042
sba(i__main__
Gene
p5964
(dp5965
g13
F28054.431873951675
sba(i__main__
Gene
p5966
(dp5967
g13
F-19288.908035883458
sba(i__main__
Gene
p5968
(dp5969
g13
F19749.573453164416
sba(i__main__
Gene
p5970
(dp5971
g13
F-3928.3081829435832
sba(i__main__
Gene
p5972
(dp5973
g13
F6987.5298415792431
sba(i__main__
Gene
p5974
(dp5975
g13
F-737.58384168559246
sba(i__main__
Gene
p5976
(dp5977
g13
F299.69054087302749
sba(i__main__
Gene
p5978
(dp5979
g13
F-894.30749498274281
sba(i__main__
Gene
p5980
(dp5981
g13
F373.86112024554427
sba(i__main__
Gene
p5982
(dp5983
g13
F-615.46625003025258
sba(i__main__
Gene
p5984
(dp5985
g13
F327.91995951847463
sba(i__main__
Gene
p5986
(dp5987
g13
F-35.970341552642424
sba(i__main__
Gene
p5988
(dp5989
g13
F23.279410181908045
sba(i__main__
Gene
p5990
(dp5991
g13
F-66.051603326836045
sba(i__main__
Gene
p5992
(dp5993
g13
F15.215360491978691
sba(i__main__
Gene
p5994
(dp5995
g13
F-15.652732635288501
sba(i__main__
Gene
p5996
(dp5997
g13
F8.2390091583514398
sba(i__main__
Gene
p5998
(dp5999
g13
F-22912.742566760309
sba(i__main__
Gene
p6000
(dp6001
g13
F40581.752704970437
sba(i__main__
Gene
p6002
(dp6003
g13
F-23062.858504628257
sba(i__main__
Gene
p6004
(dp6005
g13
F41292.031680743545
sba(i__main__
Gene
p6006
(dp6007
g13
F-35775.695925391119
sba(i__main__
Gene
p6008
(dp6009
g13
F36590.421829441468
sba(i__main__
Gene
p6010
(dp6011
g13
F-629.94599970065951
sba(i__main__
Gene
p6012
(dp6013
g13
F860.54643603448346
sba(i__main__
Gene
p6014
(dp6015
g13
F-200.18904631930184
sba(i__main__
Gene
p6016
(dp6017
g13
F683.09020670844518
sba(i__main__
Gene
p6018
(dp6019
g13
F-515.84548870196602
sba(i__main__
Gene
p6020
(dp6021
g13
F68.099886433874318
sba(i__main__
Gene
p6022
(dp6023
g13
F-73.139915486686704
sba(i__main__
Gene
p6024
(dp6025
g13
F83.018341618977871
sba(i__main__
Gene
p6026
(dp6027
g13
F-92.98569618956904
sba(i__main__
Gene
p6028
(dp6029
g13
F91.363363075541002
sba(i__main__
Gene
p6030
(dp6031
g13
F-62.54429366653099
sba(i__main__
Gene
p6032
(dp6033
g13
F52.468680153252265
sba(i__main__
Gene
p6034
(dp6035
g13
F-21091.301062586092
sba(i__main__
Gene
p6036
(dp6037
g13
F46625.360893224744
sba(i__main__
Gene
p6038
(dp6039
g13
F-35856.865475938292
sba(i__main__
Gene
p6040
(dp6041
g13
F18000.582825756061
sba(i__main__
Gene
p6042
(dp6043
g13
F-17528.587594949138
sba(i__main__
Gene
p6044
(dp6045
g13
F17971.073323358825
sba(i__main__
Gene
p6046
(dp6047
g13
F-502.88633166625652
sba(i__main__
Gene
p6048
(dp6049
g13
F386.63435537970668
sba(i__main__
Gene
p6050
(dp6051
g13
F-753.85013164515863
sba(i__main__
Gene
p6052
(dp6053
g13
F351.18394552502519
sba(i__main__
Gene
p6054
(dp6055
g13
F-975.9694758810806
sba(i__main__
Gene
p6056
(dp6057
g13
F352.36770118187434
sba(i__main__
Gene
p6058
(dp6059
g13
F-4.402729518385442
sba(i__main__
Gene
p6060
(dp6061
g13
F84.559174128441654
sba(i__main__
Gene
p6062
(dp6063
g13
F-49.294728231670717
sba(i__main__
Gene
p6064
(dp6065
g13
F68.422800549989702
sba(i__main__
Gene
p6066
(dp6067
g13
F-32.629029381852931
sba(i__main__
Gene
p6068
(dp6069
g13
F77.674285774935072
sba(i__main__
Gene
p6070
(dp6071
g13
F-41884.757619605902
sba(i__main__
Gene
p6072
(dp6073
g13
F36027.894454864945
sba(i__main__
Gene
p6074
(dp6075
g13
F-6999.3893210758688
sba(i__main__
Gene
p6076
(dp6077
g13
F22534.264153907669
sba(i__main__
Gene
p6078
(dp6079
g13
F-34298.204934381138
sba(i__main__
Gene
p6080
(dp6081
g13
F46551.618670359501
sba(i__main__
Gene
p6082
(dp6083
g13
F-85.467384127751643
sba(i__main__
Gene
p6084
(dp6085
g13
F881.14589263977155
sba(i__main__
Gene
p6086
(dp6087
g13
F-952.78020903448214
sba(i__main__
Gene
p6088
(dp6089
g13
F684.43370678639963
sba(i__main__
Gene
p6090
(dp6091
g13
F-31.110662395669578
sba(i__main__
Gene
p6092
(dp6093
g13
F881.70522035089573
sba(i__main__
Gene
p6094
(dp6095
g13
F-88.625499744045356
sba(i__main__
Gene
p6096
(dp6097
g13
F38.913770786155709
sba(i__main__
Gene
p6098
(dp6099
g13
F-62.399514091137895
sba(i__main__
Gene
p6100
(dp6101
g13
F74.3563503822934
sba(i__main__
Gene
p6102
(dp6103
g13
F-18.972320172693074
sba(i__main__
Gene
p6104
(dp6105
g13
F59.509486547891775
sba(i__main__
Gene
p6106
(dp6107
g13
F-20513.141344081647
sba(i__main__
Gene
p6108
(dp6109
g13
F31303.385250373038
sba(i__main__
Gene
p6110
(dp6111
g13
F-26868.03676108551
sba(i__main__
Gene
p6112
(dp6113
g13
F106.07810388548094
sba(i__main__
Gene
p6114
(dp6115
g13
F-11279.848486519855
sba(i__main__
Gene
p6116
(dp6117
g13
F25122.548804937713
sba(i__main__
Gene
p6118
(dp6119
g13
F-248.98049853954558
sba(i__main__
Gene
p6120
(dp6121
g13
F419.28734042155082
sba(i__main__
Gene
p6122
(dp6123
g13
F-691.96260078723174
sba(i__main__
Gene
p6124
(dp6125
g13
F698.89576953666244
sba(i__main__
Gene
p6126
(dp6127
g13
F-907.10711560756636
sba(i__main__
Gene
p6128
(dp6129
g13
F193.87493001503776
sba(i__main__
Gene
p6130
(dp6131
g13
F-15.18616983244199
sba(i__main__
Gene
p6132
(dp6133
g13
F84.513391257427116
sba(i__main__
Gene
p6134
(dp6135
g13
F-29.383291684631999
sba(i__main__
Gene
p6136
(dp6137
g13
F71.276247486349504
sba(i__main__
Gene
p6138
(dp6139
g13
F-19.514766567787916
sba(i__main__
Gene
p6140
(dp6141
g13
F78.627756914160017
sbatRp6142
(dp6143
g446
g7
(g447
g448
NtRp6144
(dp6145
g451
(F499
tp6146
sbsbag7
(g8
g9
(lp6147
(i__main__
Gene
p6148
(dp6149
g13
F-23659.930484124943
sba(i__main__
Gene
p6150
(dp6151
g13
F11607.700064747118
sba(i__main__
Gene
p6152
(dp6153
g13
F-5265.6784776032364
sba(i__main__
Gene
p6154
(dp6155
g13
F16279.529797426605
sba(i__main__
Gene
p6156
(dp6157
g13
F-37479.357355112108
sba(i__main__
Gene
p6158
(dp6159
g13
F770.48175890240691
sba(i__main__
Gene
p6160
(dp6161
g13
F-743.99284427666498
sba(i__main__
Gene
p6162
(dp6163
g13
F100.95233821159965
sba(i__main__
Gene
p6164
(dp6165
g13
F-895.56504074075906
sba(i__main__
Gene
p6166
(dp6167
g13
F951.11256662376604
sba(i__main__
Gene
p6168
(dp6169
g13
F-531.11884425588937
sba(i__main__
Gene
p6170
(dp6171
g13
F229.59712916728324
sba(i__main__
Gene
p6172
(dp6173
g13
F-5.3244701718479348
sba(i__main__
Gene
p6174
(dp6175
g13
F79.817716681751705
sba(i__main__
Gene
p6176
(dp6177
g13
F-21.251888809140794
sba(i__main__
Gene
p6178
(dp6179
g13
F75.235835221289477
sba(i__main__
Gene
p6180
(dp6181
g13
F-91.932143239283747
sba(i__main__
Gene
p6182
(dp6183
g13
F55.703409451219208
sba(i__main__
Gene
p6184
(dp6185
g13
F-34679.176828727694
sba(i__main__
Gene
p6186
(dp6187
g13
F3440.1914058264424
sba(i__main__
Gene
p6188
(dp6189
g13
F-934.83266139969783
sba(i__main__
Gene
p6190
(dp6191
g13
F48127.083114126523
sba(i__main__
Gene
p6192
(dp6193
g13
F-12963.664382052943
sba(i__main__
Gene
p6194
(dp6195
g13
F1487.8021229962108
sba(i__main__
Gene
p6196
(dp6197
g13
F-597.87169413735637
sba(i__main__
Gene
p6198
(dp6199
g13
F463.86104225198255
sba(i__main__
Gene
p6200
(dp6201
g13
F-512.96147226121252
sba(i__main__
Gene
p6202
(dp6203
g13
F365.33693414262677
sba(i__main__
Gene
p6204
(dp6205
g13
F-631.01630843592966
sba(i__main__
Gene
p6206
(dp6207
g13
F443.349610236768
sba(i__main__
Gene
p6208
(dp6209
g13
F-92.587196088523172
sba(i__main__
Gene
p6210
(dp6211
g13
F3.9819066482829402
sba(i__main__
Gene
p6212
(dp6213
g13
F-67.107356508296675
sba(i__main__
Gene
p6214
(dp6215
g13
F84.771398624537724
sba(i__main__
Gene
p6216
(dp6217
g13
F-4.9958403087274235
sba(i__main__
Gene
p6218
(dp6219
g13
F15.167460069215599
sba(i__main__
Gene
p6220
(dp6221
g13
F-25975.837663091756
sba(i__main__
Gene
p6222
(dp6223
g13
F38189.720832327745
sba(i__main__
Gene
p6224
(dp6225
g13
F-43660.205199144963
sba(i__main__
Gene
p6226
(dp6227
g13
F3997.5631358711498
sba(i__main__
Gene
p6228
(dp6229
g13
F-24318.659414794445
sba(i__main__
Gene
p6230
(dp6231
g13
F16400.991586254455
sba(i__main__
Gene
p6232
(dp6233
g13
F-657.5657055968536
sba(i__main__
Gene
p6234
(dp6235
g13
F126.19675407226016
sba(i__main__
Gene
p6236
(dp6237
g13
F-47.722988215334567
sba(i__main__
Gene
p6238
(dp6239
g13
F974.59344965558921
sba(i__main__
Gene
p6240
(dp6241
g13
F-432.49524245637872
sba(i__main__
Gene
p6242
(dp6243
g13
F901.62784908642823
sba(i__main__
Gene
p6244
(dp6245
g13
F-71.721428545804116
sba(i__main__
Gene
p6246
(dp6247
g13
F25.694956772076736
sba(i__main__
Gene
p6248
(dp6249
g13
F-91.668377925445512
sba(i__main__
Gene
p6250
(dp6251
g13
F76.691107243923341
sba(i__main__
Gene
p6252
(dp6253
g13
F-77.273821756262564
sba(i__main__
Gene
p6254
(dp6255
g13
F20.076093128643546
sba(i__main__
Gene
p6256
(dp6257
g13
F-26587.698924959033
sba(i__main__
Gene
p6258
(dp6259
g13
F3777.6411518220398
sba(i__main__
Gene
p6260
(dp6261
g13
F-13040.193931055444
sba(i__main__
Gene
p6262
(dp6263
g13
F31567.238710546888
sba(i__main__
Gene
p6264
(dp6265
g13
F-29952.563835211397
sba(i__main__
Gene
p6266
(dp6267
g13
F2287.9646854589655
sba(i__main__
Gene
p6268
(dp6269
g13
F-305.08192789646898
sba(i__main__
Gene
p6270
(dp6271
g13
F394.49328352937141
sba(i__main__
Gene
p6272
(dp6273
g13
F-140.89046868528862
sba(i__main__
Gene
p6274
(dp6275
g13
F357.44047669415949
sba(i__main__
Gene
p6276
(dp6277
g13
F-46.228079936958238
sba(i__main__
Gene
p6278
(dp6279
g13
F896.29816345927793
sba(i__main__
Gene
p6280
(dp6281
g13
F-73.232586099228769
sba(i__main__
Gene
p6282
(dp6283
g13
F93.523958851531148
sba(i__main__
Gene
p6284
(dp6285
g13
F-4.9671766075345118
sba(i__main__
Gene
p6286
(dp6287
g13
F27.314509352871575
sba(i__main__
Gene
p6288
(dp6289
g13
F-29.751392448139399
sba(i__main__
Gene
p6290
(dp6291
g13
F66.102182761737254
sba(i__main__
Gene
p6292
(dp6293
g13
F-26753.624206634642
sba(i__main__
Gene
p6294
(dp6295
g13
F21432.558804512522
sba(i__main__
Gene
p6296
(dp6297
g13
F-14657.835628100554
sba(i__main__
Gene
p6298
(dp6299
g13
F42282.78498266705
sba(i__main__
Gene
p6300
(dp6301
g13
F-46801.946175911544
sba(i__main__
Gene
p6302
(dp6303
g13
F8752.7251777681831
sba(i__main__
Gene
p6304
(dp6305
g13
F-871.01607062669314
sba(i__main__
Gene
p6306
(dp6307
g13
F834.93631939132717
sba(i__main__
Gene
p6308
(dp6309
g13
F-0.96453306659429927
sba(i__main__
Gene
p6310
(dp6311
g13
F556.72372756017796
sba(i__main__
Gene
p6312
(dp6313
g13
F-195.0867606681287
sba(i__main__
Gene
p6314
(dp6315
g13
F762.87232073076188
sba(i__main__
Gene
p6316
(dp6317
g13
F-52.869344548489707
sba(i__main__
Gene
p6318
(dp6319
g13
F63.702093386554814
sba(i__main__
Gene
p6320
(dp6321
g13
F-31.907849207616906
sba(i__main__
Gene
p6322
(dp6323
g13
F42.053325553093821
sba(i__main__
Gene
p6324
(dp6325
g13
F-36.55822917949142
sba(i__main__
Gene
p6326
(dp6327
g13
F87.038019715815935
sba(i__main__
Gene
p6328
(dp6329
g13
F-1098.098482085923
sba(i__main__
Gene
p6330
(dp6331
g13
F44649.841606388196
sba(i__main__
Gene
p6332
(dp6333
g13
F-31990.260918055654
sba(i__main__
Gene
p6334
(dp6335
g13
F9365.802383677852
sba(i__main__
Gene
p6336
(dp6337
g13
F-42664.315182842925
sba(i__main__
Gene
p6338
(dp6339
g13
F4506.6269346204408
sba(i__main__
Gene
p6340
(dp6341
g13
F-702.91178055476325
sba(i__main__
Gene
p6342
(dp6343
g13
F789.3764399988105
sba(i__main__
Gene
p6344
(dp6345
g13
F-813.3732211558131
sba(i__main__
Gene
p6346
(dp6347
g13
F136.3252020964436
sba(i__main__
Gene
p6348
(dp6349
g13
F-444.15306055544875
sba(i__main__
Gene
p6350
(dp6351
g13
F29.94763372457254
sba(i__main__
Gene
p6352
(dp6353
g13
F-96.957569331820409
sba(i__main__
Gene
p6354
(dp6355
g13
F58.154159727760899
sba(i__main__
Gene
p6356
(dp6357
g13
F-60.042183012918152
sba(i__main__
Gene
p6358
(dp6359
g13
F24.364176076543821
sba(i__main__
Gene
p6360
(dp6361
g13
F-59.186956851573889
sba(i__main__
Gene
p6362
(dp6363
g13
F1.8457069015416327
sba(i__main__
Gene
p6364
(dp6365
g13
F-9289.1374713921832
sba(i__main__
Gene
p6366
(dp6367
g13
F29939.504492302713
sba(i__main__
Gene
p6368
(dp6369
g13
F-31862.238669030285
sba(i__main__
Gene
p6370
(dp6371
g13
F24310.693733731699
sba(i__main__
Gene
p6372
(dp6373
g13
F-10299.339672379319
sba(i__main__
Gene
p6374
(dp6375
g13
F15237.97008617032
sba(i__main__
Gene
p6376
(dp6377
g13
F-563.49362780212221
sba(i__main__
Gene
p6378
(dp6379
g13
F400.39642415985179
sba(i__main__
Gene
p6380
(dp6381
g13
F-398.33381704722808
sba(i__main__
Gene
p6382
(dp6383
g13
F21.887442222769504
sba(i__main__
Gene
p6384
(dp6385
g13
F-774.0441442364538
sba(i__main__
Gene
p6386
(dp6387
g13
F123.37662869913369
sba(i__main__
Gene
p6388
(dp6389
g13
F-23.59239059710599
sba(i__main__
Gene
p6390
(dp6391
g13
F32.326018036932659
sba(i__main__
Gene
p6392
(dp6393
g13
F-42.840933644765769
sba(i__main__
Gene
p6394
(dp6395
g13
F64.583977492202152
sba(i__main__
Gene
p6396
(dp6397
g13
F-41.54924904932431
sba(i__main__
Gene
p6398
(dp6399
g13
F10.313454240284859
sba(i__main__
Gene
p6400
(dp6401
g13
F-38282.882603324237
sba(i__main__
Gene
p6402
(dp6403
g13
F35574.600934968184
sba(i__main__
Gene
p6404
(dp6405
g13
F-2254.9658300872761
sba(i__main__
Gene
p6406
(dp6407
g13
F16633.246937151791
sba(i__main__
Gene
p6408
(dp6409
g13
F-21305.292271287071
sba(i__main__
Gene
p6410
(dp6411
g13
F24244.170299655842
sba(i__main__
Gene
p6412
(dp6413
g13
F-724.45158876615642
sba(i__main__
Gene
p6414
(dp6415
g13
F673.97948632256089
sba(i__main__
Gene
p6416
(dp6417
g13
F-47.101493239430965
sba(i__main__
Gene
p6418
(dp6419
g13
F797.88135384282225
sba(i__main__
Gene
p6420
(dp6421
g13
F-718.24274819669097
sba(i__main__
Gene
p6422
(dp6423
g13
F251.37126118358267
sba(i__main__
Gene
p6424
(dp6425
g13
F-17.710523809121355
sba(i__main__
Gene
p6426
(dp6427
g13
F86.718153036388628
sba(i__main__
Gene
p6428
(dp6429
g13
F-94.107679695108445
sba(i__main__
Gene
p6430
(dp6431
g13
F96.724029357509806
sba(i__main__
Gene
p6432
(dp6433
g13
F-12.468632804822349
sba(i__main__
Gene
p6434
(dp6435
g13
F37.4375235577469
sba(i__main__
Gene
p6436
(dp6437
g13
F-31956.726516578936
sba(i__main__
Gene
p6438
(dp6439
g13
F37821.312809421928
sba(i__main__
Gene
p6440
(dp6441
g13
F-17126.065386065759
sba(i__main__
Gene
p6442
(dp6443
g13
F20381.791067086124
sba(i__main__
Gene
p6444
(dp6445
g13
F-34338.115743146038
sba(i__main__
Gene
p6446
(dp6447
g13
F46852.442207276865
sba(i__main__
Gene
p6448
(dp6449
g13
F-788.32048351570279
sba(i__main__
Gene
p6450
(dp6451
g13
F652.67633932443891
sba(i__main__
Gene
p6452
(dp6453
g13
F-64.256562588107045
sba(i__main__
Gene
p6454
(dp6455
g13
F107.87821315088131
sba(i__main__
Gene
p6456
(dp6457
g13
F-192.62609950000456
sba(i__main__
Gene
p6458
(dp6459
g13
F998.19512530346185
sba(i__main__
Gene
p6460
(dp6461
g13
F-60.632954302926343
sba(i__main__
Gene
p6462
(dp6463
g13
F88.082771986819296
sba(i__main__
Gene
p6464
(dp6465
g13
F-18.821016039753943
sba(i__main__
Gene
p6466
(dp6467
g13
F8.2352505204777984
sba(i__main__
Gene
p6468
(dp6469
g13
F-91.930369880996992
sba(i__main__
Gene
p6470
(dp6471
g13
F62.65965190887519
sba(i__main__
Gene
p6472
(dp6473
g13
F-24919.477394695678
sba(i__main__
Gene
p6474
(dp6475
g13
F44771.152462718637
sba(i__main__
Gene
p6476
(dp6477
g13
F-9411.8607244061641
sba(i__main__
Gene
p6478
(dp6479
g13
F26249.041521571373
sba(i__main__
Gene
p6480
(dp6481
g13
F-38669.391325206823
sba(i__main__
Gene
p6482
(dp6483
g13
F24882.015422411263
sba(i__main__
Gene
p6484
(dp6485
g13
F-990.83656669278514
sba(i__main__
Gene
p6486
(dp6487
g13
F168.4164322101206
sba(i__main__
Gene
p6488
(dp6489
g13
F-931.9261939784119
sba(i__main__
Gene
p6490
(dp6491
g13
F907.70935047047954
sba(i__main__
Gene
p6492
(dp6493
g13
F-994.64737805496554
sba(i__main__
Gene
p6494
(dp6495
g13
F55.776416448327538
sba(i__main__
Gene
p6496
(dp6497
g13
F-94.06593615801232
sba(i__main__
Gene
p6498
(dp6499
g13
F56.724031072088046
sba(i__main__
Gene
p6500
(dp6501
g13
F-14.694906778893412
sba(i__main__
Gene
p6502
(dp6503
g13
F29.468432725045822
sba(i__main__
Gene
p6504
(dp6505
g13
F-97.931179115440983
sba(i__main__
Gene
p6506
(dp6507
g13
F23.676476559241245
sba(i__main__
Gene
p6508
(dp6509
g13
F-13550.840529709152
sba(i__main__
Gene
p6510
(dp6511
g13
F19885.473340573066
sba(i__main__
Gene
p6512
(dp6513
g13
F-42875.153450624544
sba(i__main__
Gene
p6514
(dp6515
g13
F32926.347125397209
sba(i__main__
Gene
p6516
(dp6517
g13
F-18625.684195065027
sba(i__main__
Gene
p6518
(dp6519
g13
F14292.209718370314
sba(i__main__
Gene
p6520
(dp6521
g13
F-181.14756863156845
sba(i__main__
Gene
p6522
(dp6523
g13
F707.47386456067727
sba(i__main__
Gene
p6524
(dp6525
g13
F-943.86549946160346
sba(i__main__
Gene
p6526
(dp6527
g13
F65.995754608184299
sba(i__main__
Gene
p6528
(dp6529
g13
F-329.45711630797553
sba(i__main__
Gene
p6530
(dp6531
g13
F981.99202815947876
sba(i__main__
Gene
p6532
(dp6533
g13
F-19.522889760639515
sba(i__main__
Gene
p6534
(dp6535
g13
F45.120557207997678
sba(i__main__
Gene
p6536
(dp6537
g13
F-93.344371531410985
sba(i__main__
Gene
p6538
(dp6539
g13
F30.847365578459531
sba(i__main__
Gene
p6540
(dp6541
g13
F-48.191754514708286
sba(i__main__
Gene
p6542
(dp6543
g13
F96.016975266351054
sba(i__main__
Gene
p6544
(dp6545
g13
F-35602.678083644576
sba(i__main__
Gene
p6546
(dp6547
g13
F24213.317048055083
sba(i__main__
Gene
p6548
(dp6549
g13
F-4719.5994987759113
sba(i__main__
Gene
p6550
(dp6551
g13
F32181.654387056369
sba(i__main__
Gene
p6552
(dp6553
g13
F-29866.907512648078
sba(i__main__
Gene
p6554
(dp6555
g13
F18774.553746310216
sba(i__main__
Gene
p6556
(dp6557
g13
F-984.83335716645399
sba(i__main__
Gene
p6558
(dp6559
g13
F814.13015154989034
sba(i__main__
Gene
p6560
(dp6561
g13
F-696.51273718214202
sba(i__main__
Gene
p6562
(dp6563
g13
F793.58131732852223
sba(i__main__
Gene
p6564
(dp6565
g13
F-473.84952355132179
sba(i__main__
Gene
p6566
(dp6567
g13
F795.70956127510317
sba(i__main__
Gene
p6568
(dp6569
g13
F-98.309462111629657
sba(i__main__
Gene
p6570
(dp6571
g13
F10.324481323976132
sba(i__main__
Gene
p6572
(dp6573
g13
F-79.842811020550755
sba(i__main__
Gene
p6574
(dp6575
g13
F63.059839321853218
sba(i__main__
Gene
p6576
(dp6577
g13
F-35.015711544846724
sba(i__main__
Gene
p6578
(dp6579
g13
F14.038490945134608
sbatRp6580
(dp6581
g446
g7
(g447
g448
NtRp6582
(dp6583
g451
(F485.80000000000001
tp6584
sbsbas.